
proj13_pwnLight.elf:     file format elf32-littlearm

Sections:
Idx Name          Size      VMA       LMA       File off  Algn
  0 .isr_vector   0000010c  08000000  08000000  00001000  2**0
                  CONTENTS, ALLOC, LOAD, READONLY, DATA
  1 .text         00001ea0  0800010c  0800010c  0000110c  2**2
                  CONTENTS, ALLOC, LOAD, READONLY, CODE
  2 .rodata       00000024  08001fac  08001fac  00002fac  2**2
                  CONTENTS, ALLOC, LOAD, READONLY, DATA
  3 .ARM.extab    00000000  08001fd0  08001fd0  0000300c  2**0
                  CONTENTS
  4 .ARM          00000000  08001fd0  08001fd0  0000300c  2**0
                  CONTENTS
  5 .preinit_array 00000000  08001fd0  08001fd0  0000300c  2**0
                  CONTENTS, ALLOC, LOAD, DATA
  6 .init_array   00000004  08001fd0  08001fd0  00002fd0  2**2
                  CONTENTS, ALLOC, LOAD, READONLY, DATA
  7 .fini_array   00000004  08001fd4  08001fd4  00002fd4  2**2
                  CONTENTS, ALLOC, LOAD, READONLY, DATA
  8 .data         0000000c  20000000  08001fd8  00003000  2**2
                  CONTENTS, ALLOC, LOAD, DATA
  9 .bss          00000068  2000000c  08001fe4  0000300c  2**2
                  ALLOC
 10 ._user_heap_stack 00000604  20000074  08001fe4  00003074  2**0
                  ALLOC
 11 .ARM.attributes 00000029  00000000  00000000  0000300c  2**0
                  CONTENTS, READONLY
 12 .debug_info   00007492  00000000  00000000  00003035  2**0
                  CONTENTS, READONLY, DEBUGGING, OCTETS
 13 .debug_abbrev 000014ad  00000000  00000000  0000a4c7  2**0
                  CONTENTS, READONLY, DEBUGGING, OCTETS
 14 .debug_aranges 00000928  00000000  00000000  0000b978  2**3
                  CONTENTS, READONLY, DEBUGGING, OCTETS
 15 .debug_rnglists 00000712  00000000  00000000  0000c2a0  2**0
                  CONTENTS, READONLY, DEBUGGING, OCTETS
 16 .debug_macro  000165fb  00000000  00000000  0000c9b2  2**0
                  CONTENTS, READONLY, DEBUGGING, OCTETS
 17 .debug_line   000099dd  00000000  00000000  00022fad  2**0
                  CONTENTS, READONLY, DEBUGGING, OCTETS
 18 .debug_str    0008417f  00000000  00000000  0002c98a  2**0
                  CONTENTS, READONLY, DEBUGGING, OCTETS
 19 .comment      00000043  00000000  00000000  000b0b09  2**0
                  CONTENTS, READONLY
 20 .debug_frame  000025bc  00000000  00000000  000b0b4c  2**2
                  CONTENTS, READONLY, DEBUGGING, OCTETS
 21 .debug_line_str 00000055  00000000  00000000  000b3108  2**0
                  CONTENTS, READONLY, DEBUGGING, OCTETS

Disassembly of section .text:

0800010c <__do_global_dtors_aux>:
 800010c:	b510      	push	{r4, lr}
 800010e:	4c05      	ldr	r4, [pc, #20]	@ (8000124 <__do_global_dtors_aux+0x18>)
 8000110:	7823      	ldrb	r3, [r4, #0]
 8000112:	b933      	cbnz	r3, 8000122 <__do_global_dtors_aux+0x16>
 8000114:	4b04      	ldr	r3, [pc, #16]	@ (8000128 <__do_global_dtors_aux+0x1c>)
 8000116:	b113      	cbz	r3, 800011e <__do_global_dtors_aux+0x12>
 8000118:	4804      	ldr	r0, [pc, #16]	@ (800012c <__do_global_dtors_aux+0x20>)
 800011a:	f3af 8000 	nop.w
 800011e:	2301      	movs	r3, #1
 8000120:	7023      	strb	r3, [r4, #0]
 8000122:	bd10      	pop	{r4, pc}
 8000124:	2000000c 	.word	0x2000000c
 8000128:	00000000 	.word	0x00000000
 800012c:	08001f94 	.word	0x08001f94

08000130 <frame_dummy>:
 8000130:	b508      	push	{r3, lr}
 8000132:	4b03      	ldr	r3, [pc, #12]	@ (8000140 <frame_dummy+0x10>)
 8000134:	b11b      	cbz	r3, 800013e <frame_dummy+0xe>
 8000136:	4903      	ldr	r1, [pc, #12]	@ (8000144 <frame_dummy+0x14>)
 8000138:	4803      	ldr	r0, [pc, #12]	@ (8000148 <frame_dummy+0x18>)
 800013a:	f3af 8000 	nop.w
 800013e:	bd08      	pop	{r3, pc}
 8000140:	00000000 	.word	0x00000000
 8000144:	20000010 	.word	0x20000010
 8000148:	08001f94 	.word	0x08001f94

0800014c <main>:
/**
  * @brief  The application entry point.
  * @retval int
  */
int main(void)
{
 800014c:	b580      	push	{r7, lr}
 800014e:	b082      	sub	sp, #8
 8000150:	af00      	add	r7, sp, #0
  /* USER CODE END 1 */

  /* MCU Configuration--------------------------------------------------------*/

  /* Reset of all peripherals, Initializes the Flash interface and the Systick. */
  HAL_Init();
 8000152:	f000 fa45 	bl	80005e0 <HAL_Init>
  /* USER CODE BEGIN Init */

  /* USER CODE END Init */

  /* Configure the system clock */
  SystemClock_Config();
 8000156:	f000 f843 	bl	80001e0 <SystemClock_Config>
  /* USER CODE BEGIN SysInit */

  /* USER CODE END SysInit */

  /* Initialize all configured peripherals */
  MX_GPIO_Init();
 800015a:	f000 f919 	bl	8000390 <MX_GPIO_Init>
  MX_TIM3_Init();
 800015e:	f000 f885 	bl	800026c <MX_TIM3_Init>
  /* USER CODE BEGIN 2 */
  HAL_TIM_PWM_Start(&htim3, TIM_CHANNEL_1);
 8000162:	2100      	movs	r1, #0
 8000164:	481d      	ldr	r0, [pc, #116]	@ (80001dc <main+0x90>)
 8000166:	f001 f9af 	bl	80014c8 <HAL_TIM_PWM_Start>
  HAL_TIM_PWM_Start(&htim3, TIM_CHANNEL_2);
 800016a:	2104      	movs	r1, #4
 800016c:	481b      	ldr	r0, [pc, #108]	@ (80001dc <main+0x90>)
 800016e:	f001 f9ab 	bl	80014c8 <HAL_TIM_PWM_Start>
  HAL_TIM_PWM_Start(&htim3, TIM_CHANNEL_3);
 8000172:	2108      	movs	r1, #8
 8000174:	4819      	ldr	r0, [pc, #100]	@ (80001dc <main+0x90>)
 8000176:	f001 f9a7 	bl	80014c8 <HAL_TIM_PWM_Start>

  /* Infinite loop */
  /* USER CODE BEGIN WHILE */
  while (1)
  {
	  for(int i = 0; i<100 ;i++){
 800017a:	2300      	movs	r3, #0
 800017c:	607b      	str	r3, [r7, #4]
 800017e:	e011      	b.n	80001a4 <main+0x58>
		  __HAL_TIM_SET_COMPARE(&htim3,TIM_CHANNEL_1,i);
 8000180:	4b16      	ldr	r3, [pc, #88]	@ (80001dc <main+0x90>)
 8000182:	681b      	ldr	r3, [r3, #0]
 8000184:	687a      	ldr	r2, [r7, #4]
 8000186:	635a      	str	r2, [r3, #52]	@ 0x34
		  __HAL_TIM_SET_COMPARE(&htim3,TIM_CHANNEL_2,i);
 8000188:	4b14      	ldr	r3, [pc, #80]	@ (80001dc <main+0x90>)
 800018a:	681b      	ldr	r3, [r3, #0]
 800018c:	687a      	ldr	r2, [r7, #4]
 800018e:	639a      	str	r2, [r3, #56]	@ 0x38
		  __HAL_TIM_SET_COMPARE(&htim3,TIM_CHANNEL_3,i);
 8000190:	4b12      	ldr	r3, [pc, #72]	@ (80001dc <main+0x90>)
 8000192:	681b      	ldr	r3, [r3, #0]
 8000194:	687a      	ldr	r2, [r7, #4]
 8000196:	63da      	str	r2, [r3, #60]	@ 0x3c
		  HAL_Delay(10);
 8000198:	200a      	movs	r0, #10
 800019a:	f000 fa83 	bl	80006a4 <HAL_Delay>
	  for(int i = 0; i<100 ;i++){
 800019e:	687b      	ldr	r3, [r7, #4]
 80001a0:	3301      	adds	r3, #1
 80001a2:	607b      	str	r3, [r7, #4]
 80001a4:	687b      	ldr	r3, [r7, #4]
 80001a6:	2b63      	cmp	r3, #99	@ 0x63
 80001a8:	ddea      	ble.n	8000180 <main+0x34>
	  }
	  for(int i = 99; i>=0 ;i--){
 80001aa:	2363      	movs	r3, #99	@ 0x63
 80001ac:	603b      	str	r3, [r7, #0]
 80001ae:	e011      	b.n	80001d4 <main+0x88>
		  __HAL_TIM_SET_COMPARE(&htim3,TIM_CHANNEL_1,i);
 80001b0:	4b0a      	ldr	r3, [pc, #40]	@ (80001dc <main+0x90>)
 80001b2:	681b      	ldr	r3, [r3, #0]
 80001b4:	683a      	ldr	r2, [r7, #0]
 80001b6:	635a      	str	r2, [r3, #52]	@ 0x34
		  __HAL_TIM_SET_COMPARE(&htim3,TIM_CHANNEL_2,i);
 80001b8:	4b08      	ldr	r3, [pc, #32]	@ (80001dc <main+0x90>)
 80001ba:	681b      	ldr	r3, [r3, #0]
 80001bc:	683a      	ldr	r2, [r7, #0]
 80001be:	639a      	str	r2, [r3, #56]	@ 0x38
		  __HAL_TIM_SET_COMPARE(&htim3,TIM_CHANNEL_3,i);
 80001c0:	4b06      	ldr	r3, [pc, #24]	@ (80001dc <main+0x90>)
 80001c2:	681b      	ldr	r3, [r3, #0]
 80001c4:	683a      	ldr	r2, [r7, #0]
 80001c6:	63da      	str	r2, [r3, #60]	@ 0x3c
		  HAL_Delay(10);
 80001c8:	200a      	movs	r0, #10
 80001ca:	f000 fa6b 	bl	80006a4 <HAL_Delay>
	  for(int i = 99; i>=0 ;i--){
 80001ce:	683b      	ldr	r3, [r7, #0]
 80001d0:	3b01      	subs	r3, #1
 80001d2:	603b      	str	r3, [r7, #0]
 80001d4:	683b      	ldr	r3, [r7, #0]
 80001d6:	2b00      	cmp	r3, #0
 80001d8:	daea      	bge.n	80001b0 <main+0x64>
	  for(int i = 0; i<100 ;i++){
 80001da:	e7ce      	b.n	800017a <main+0x2e>
 80001dc:	20000028 	.word	0x20000028

080001e0 <SystemClock_Config>:
/**
  * @brief System Clock Configuration
  * @retval None
  */
void SystemClock_Config(void)
{
 80001e0:	b580      	push	{r7, lr}
 80001e2:	b090      	sub	sp, #64	@ 0x40
 80001e4:	af00      	add	r7, sp, #0
  RCC_OscInitTypeDef RCC_OscInitStruct = {0};
 80001e6:	f107 0318 	add.w	r3, r7, #24
 80001ea:	2228      	movs	r2, #40	@ 0x28
 80001ec:	2100      	movs	r1, #0
 80001ee:	4618      	mov	r0, r3
 80001f0:	f001 fea4 	bl	8001f3c <memset>
  RCC_ClkInitTypeDef RCC_ClkInitStruct = {0};
 80001f4:	1d3b      	adds	r3, r7, #4
 80001f6:	2200      	movs	r2, #0
 80001f8:	601a      	str	r2, [r3, #0]
 80001fa:	605a      	str	r2, [r3, #4]
 80001fc:	609a      	str	r2, [r3, #8]
 80001fe:	60da      	str	r2, [r3, #12]
 8000200:	611a      	str	r2, [r3, #16]

  /** Initializes the RCC Oscillators according to the specified parameters
  * in the RCC_OscInitTypeDef structure.
  */
  RCC_OscInitStruct.OscillatorType = RCC_OSCILLATORTYPE_HSE;
 8000202:	2301      	movs	r3, #1
 8000204:	61bb      	str	r3, [r7, #24]
  RCC_OscInitStruct.HSEState = RCC_HSE_ON;
 8000206:	f44f 3380 	mov.w	r3, #65536	@ 0x10000
 800020a:	61fb      	str	r3, [r7, #28]
  RCC_OscInitStruct.HSEPredivValue = RCC_HSE_PREDIV_DIV1;
 800020c:	2300      	movs	r3, #0
 800020e:	623b      	str	r3, [r7, #32]
  RCC_OscInitStruct.HSIState = RCC_HSI_ON;
 8000210:	2301      	movs	r3, #1
 8000212:	62bb      	str	r3, [r7, #40]	@ 0x28
  RCC_OscInitStruct.PLL.PLLState = RCC_PLL_ON;
 8000214:	2302      	movs	r3, #2
 8000216:	637b      	str	r3, [r7, #52]	@ 0x34
  RCC_OscInitStruct.PLL.PLLSource = RCC_PLLSOURCE_HSE;
 8000218:	f44f 3380 	mov.w	r3, #65536	@ 0x10000
 800021c:	63bb      	str	r3, [r7, #56]	@ 0x38
  RCC_OscInitStruct.PLL.PLLMUL = RCC_PLL_MUL9;
 800021e:	f44f 13e0 	mov.w	r3, #1835008	@ 0x1c0000
 8000222:	63fb      	str	r3, [r7, #60]	@ 0x3c
  if (HAL_RCC_OscConfig(&RCC_OscInitStruct) != HAL_OK)
 8000224:	f107 0318 	add.w	r3, r7, #24
 8000228:	4618      	mov	r0, r3
 800022a:	f000 fcc7 	bl	8000bbc <HAL_RCC_OscConfig>
 800022e:	4603      	mov	r3, r0
 8000230:	2b00      	cmp	r3, #0
 8000232:	d001      	beq.n	8000238 <SystemClock_Config+0x58>
  {
    Error_Handler();
 8000234:	f000 f8da 	bl	80003ec <Error_Handler>
  }

  /** Initializes the CPU, AHB and APB buses clocks
  */
  RCC_ClkInitStruct.ClockType = RCC_CLOCKTYPE_HCLK|RCC_CLOCKTYPE_SYSCLK
 8000238:	230f      	movs	r3, #15
 800023a:	607b      	str	r3, [r7, #4]
                              |RCC_CLOCKTYPE_PCLK1|RCC_CLOCKTYPE_PCLK2;
  RCC_ClkInitStruct.SYSCLKSource = RCC_SYSCLKSOURCE_PLLCLK;
 800023c:	2302      	movs	r3, #2
 800023e:	60bb      	str	r3, [r7, #8]
  RCC_ClkInitStruct.AHBCLKDivider = RCC_SYSCLK_DIV1;
 8000240:	2300      	movs	r3, #0
 8000242:	60fb      	str	r3, [r7, #12]
  RCC_ClkInitStruct.APB1CLKDivider = RCC_HCLK_DIV2;
 8000244:	f44f 6380 	mov.w	r3, #1024	@ 0x400
 8000248:	613b      	str	r3, [r7, #16]
  RCC_ClkInitStruct.APB2CLKDivider = RCC_HCLK_DIV1;
 800024a:	2300      	movs	r3, #0
 800024c:	617b      	str	r3, [r7, #20]

  if (HAL_RCC_ClockConfig(&RCC_ClkInitStruct, FLASH_LATENCY_2) != HAL_OK)
 800024e:	1d3b      	adds	r3, r7, #4
 8000250:	2102      	movs	r1, #2
 8000252:	4618      	mov	r0, r3
 8000254:	f000 ff34 	bl	80010c0 <HAL_RCC_ClockConfig>
 8000258:	4603      	mov	r3, r0
 800025a:	2b00      	cmp	r3, #0
 800025c:	d001      	beq.n	8000262 <SystemClock_Config+0x82>
  {
    Error_Handler();
 800025e:	f000 f8c5 	bl	80003ec <Error_Handler>
  }
}
 8000262:	bf00      	nop
 8000264:	3740      	adds	r7, #64	@ 0x40
 8000266:	46bd      	mov	sp, r7
 8000268:	bd80      	pop	{r7, pc}
	...

0800026c <MX_TIM3_Init>:
  * @brief TIM3 Initialization Function
  * @param None
  * @retval None
  */
static void MX_TIM3_Init(void)
{
 800026c:	b580      	push	{r7, lr}
 800026e:	b08e      	sub	sp, #56	@ 0x38
 8000270:	af00      	add	r7, sp, #0

  /* USER CODE BEGIN TIM3_Init 0 */

  /* USER CODE END TIM3_Init 0 */

  TIM_ClockConfigTypeDef sClockSourceConfig = {0};
 8000272:	f107 0328 	add.w	r3, r7, #40	@ 0x28
 8000276:	2200      	movs	r2, #0
 8000278:	601a      	str	r2, [r3, #0]
 800027a:	605a      	str	r2, [r3, #4]
 800027c:	609a      	str	r2, [r3, #8]
 800027e:	60da      	str	r2, [r3, #12]
  TIM_MasterConfigTypeDef sMasterConfig = {0};
 8000280:	f107 0320 	add.w	r3, r7, #32
 8000284:	2200      	movs	r2, #0
 8000286:	601a      	str	r2, [r3, #0]
 8000288:	605a      	str	r2, [r3, #4]
  TIM_OC_InitTypeDef sConfigOC = {0};
 800028a:	1d3b      	adds	r3, r7, #4
 800028c:	2200      	movs	r2, #0
 800028e:	601a      	str	r2, [r3, #0]
 8000290:	605a      	str	r2, [r3, #4]
 8000292:	609a      	str	r2, [r3, #8]
 8000294:	60da      	str	r2, [r3, #12]
 8000296:	611a      	str	r2, [r3, #16]
 8000298:	615a      	str	r2, [r3, #20]
 800029a:	619a      	str	r2, [r3, #24]

  /* USER CODE BEGIN TIM3_Init 1 */

  /* USER CODE END TIM3_Init 1 */
  htim3.Instance = TIM3;
 800029c:	4b3a      	ldr	r3, [pc, #232]	@ (8000388 <MX_TIM3_Init+0x11c>)
 800029e:	4a3b      	ldr	r2, [pc, #236]	@ (800038c <MX_TIM3_Init+0x120>)
 80002a0:	601a      	str	r2, [r3, #0]
  htim3.Init.Prescaler = 72-1;
 80002a2:	4b39      	ldr	r3, [pc, #228]	@ (8000388 <MX_TIM3_Init+0x11c>)
 80002a4:	2247      	movs	r2, #71	@ 0x47
 80002a6:	605a      	str	r2, [r3, #4]
  htim3.Init.CounterMode = TIM_COUNTERMODE_UP;
 80002a8:	4b37      	ldr	r3, [pc, #220]	@ (8000388 <MX_TIM3_Init+0x11c>)
 80002aa:	2200      	movs	r2, #0
 80002ac:	609a      	str	r2, [r3, #8]
  htim3.Init.Period = 100-1;
 80002ae:	4b36      	ldr	r3, [pc, #216]	@ (8000388 <MX_TIM3_Init+0x11c>)
 80002b0:	2263      	movs	r2, #99	@ 0x63
 80002b2:	60da      	str	r2, [r3, #12]
  htim3.Init.ClockDivision = TIM_CLOCKDIVISION_DIV1;
 80002b4:	4b34      	ldr	r3, [pc, #208]	@ (8000388 <MX_TIM3_Init+0x11c>)
 80002b6:	2200      	movs	r2, #0
 80002b8:	611a      	str	r2, [r3, #16]
  htim3.Init.AutoReloadPreload = TIM_AUTORELOAD_PRELOAD_DISABLE;
 80002ba:	4b33      	ldr	r3, [pc, #204]	@ (8000388 <MX_TIM3_Init+0x11c>)
 80002bc:	2200      	movs	r2, #0
 80002be:	619a      	str	r2, [r3, #24]
  if (HAL_TIM_Base_Init(&htim3) != HAL_OK)
 80002c0:	4831      	ldr	r0, [pc, #196]	@ (8000388 <MX_TIM3_Init+0x11c>)
 80002c2:	f001 f859 	bl	8001378 <HAL_TIM_Base_Init>
 80002c6:	4603      	mov	r3, r0
 80002c8:	2b00      	cmp	r3, #0
 80002ca:	d001      	beq.n	80002d0 <MX_TIM3_Init+0x64>
  {
    Error_Handler();
 80002cc:	f000 f88e 	bl	80003ec <Error_Handler>
  }
  sClockSourceConfig.ClockSource = TIM_CLOCKSOURCE_INTERNAL;
 80002d0:	f44f 5380 	mov.w	r3, #4096	@ 0x1000
 80002d4:	62bb      	str	r3, [r7, #40]	@ 0x28
  if (HAL_TIM_ConfigClockSource(&htim3, &sClockSourceConfig) != HAL_OK)
 80002d6:	f107 0328 	add.w	r3, r7, #40	@ 0x28
 80002da:	4619      	mov	r1, r3
 80002dc:	482a      	ldr	r0, [pc, #168]	@ (8000388 <MX_TIM3_Init+0x11c>)
 80002de:	f001 fa57 	bl	8001790 <HAL_TIM_ConfigClockSource>
 80002e2:	4603      	mov	r3, r0
 80002e4:	2b00      	cmp	r3, #0
 80002e6:	d001      	beq.n	80002ec <MX_TIM3_Init+0x80>
  {
    Error_Handler();
 80002e8:	f000 f880 	bl	80003ec <Error_Handler>
  }
  if (HAL_TIM_PWM_Init(&htim3) != HAL_OK)
 80002ec:	4826      	ldr	r0, [pc, #152]	@ (8000388 <MX_TIM3_Init+0x11c>)
 80002ee:	f001 f892 	bl	8001416 <HAL_TIM_PWM_Init>
 80002f2:	4603      	mov	r3, r0
 80002f4:	2b00      	cmp	r3, #0
 80002f6:	d001      	beq.n	80002fc <MX_TIM3_Init+0x90>
  {
    Error_Handler();
 80002f8:	f000 f878 	bl	80003ec <Error_Handler>
  }
  sMasterConfig.MasterOutputTrigger = TIM_TRGO_RESET;
 80002fc:	2300      	movs	r3, #0
 80002fe:	623b      	str	r3, [r7, #32]
  sMasterConfig.MasterSlaveMode = TIM_MASTERSLAVEMODE_DISABLE;
 8000300:	2300      	movs	r3, #0
 8000302:	627b      	str	r3, [r7, #36]	@ 0x24
  if (HAL_TIMEx_MasterConfigSynchronization(&htim3, &sMasterConfig) != HAL_OK)
 8000304:	f107 0320 	add.w	r3, r7, #32
 8000308:	4619      	mov	r1, r3
 800030a:	481f      	ldr	r0, [pc, #124]	@ (8000388 <MX_TIM3_Init+0x11c>)
 800030c:	f001 fdb8 	bl	8001e80 <HAL_TIMEx_MasterConfigSynchronization>
 8000310:	4603      	mov	r3, r0
 8000312:	2b00      	cmp	r3, #0
 8000314:	d001      	beq.n	800031a <MX_TIM3_Init+0xae>
  {
    Error_Handler();
 8000316:	f000 f869 	bl	80003ec <Error_Handler>
  }
  sConfigOC.OCMode = TIM_OCMODE_PWM1;
 800031a:	2360      	movs	r3, #96	@ 0x60
 800031c:	607b      	str	r3, [r7, #4]
  sConfigOC.Pulse = 50;
 800031e:	2332      	movs	r3, #50	@ 0x32
 8000320:	60bb      	str	r3, [r7, #8]
  sConfigOC.OCPolarity = TIM_OCPOLARITY_HIGH;
 8000322:	2300      	movs	r3, #0
 8000324:	60fb      	str	r3, [r7, #12]
  sConfigOC.OCFastMode = TIM_OCFAST_DISABLE;
 8000326:	2300      	movs	r3, #0
 8000328:	617b      	str	r3, [r7, #20]
  if (HAL_TIM_PWM_ConfigChannel(&htim3, &sConfigOC, TIM_CHANNEL_1) != HAL_OK)
 800032a:	1d3b      	adds	r3, r7, #4
 800032c:	2200      	movs	r2, #0
 800032e:	4619      	mov	r1, r3
 8000330:	4815      	ldr	r0, [pc, #84]	@ (8000388 <MX_TIM3_Init+0x11c>)
 8000332:	f001 f96b 	bl	800160c <HAL_TIM_PWM_ConfigChannel>
 8000336:	4603      	mov	r3, r0
 8000338:	2b00      	cmp	r3, #0
 800033a:	d001      	beq.n	8000340 <MX_TIM3_Init+0xd4>
  {
    Error_Handler();
 800033c:	f000 f856 	bl	80003ec <Error_Handler>
  }
  sConfigOC.Pulse = 0;
 8000340:	2300      	movs	r3, #0
 8000342:	60bb      	str	r3, [r7, #8]
  sConfigOC.OCPolarity = TIM_OCPOLARITY_LOW;
 8000344:	2302      	movs	r3, #2
 8000346:	60fb      	str	r3, [r7, #12]
  if (HAL_TIM_PWM_ConfigChannel(&htim3, &sConfigOC, TIM_CHANNEL_2) != HAL_OK)
 8000348:	1d3b      	adds	r3, r7, #4
 800034a:	2204      	movs	r2, #4
 800034c:	4619      	mov	r1, r3
 800034e:	480e      	ldr	r0, [pc, #56]	@ (8000388 <MX_TIM3_Init+0x11c>)
 8000350:	f001 f95c 	bl	800160c <HAL_TIM_PWM_ConfigChannel>
 8000354:	4603      	mov	r3, r0
 8000356:	2b00      	cmp	r3, #0
 8000358:	d001      	beq.n	800035e <MX_TIM3_Init+0xf2>
  {
    Error_Handler();
 800035a:	f000 f847 	bl	80003ec <Error_Handler>
  }
  sConfigOC.OCPolarity = TIM_OCPOLARITY_HIGH;
 800035e:	2300      	movs	r3, #0
 8000360:	60fb      	str	r3, [r7, #12]
  if (HAL_TIM_PWM_ConfigChannel(&htim3, &sConfigOC, TIM_CHANNEL_3) != HAL_OK)
 8000362:	1d3b      	adds	r3, r7, #4
 8000364:	2208      	movs	r2, #8
 8000366:	4619      	mov	r1, r3
 8000368:	4807      	ldr	r0, [pc, #28]	@ (8000388 <MX_TIM3_Init+0x11c>)
 800036a:	f001 f94f 	bl	800160c <HAL_TIM_PWM_ConfigChannel>
 800036e:	4603      	mov	r3, r0
 8000370:	2b00      	cmp	r3, #0
 8000372:	d001      	beq.n	8000378 <MX_TIM3_Init+0x10c>
  {
    Error_Handler();
 8000374:	f000 f83a 	bl	80003ec <Error_Handler>
  }
  /* USER CODE BEGIN TIM3_Init 2 */

  /* USER CODE END TIM3_Init 2 */
  HAL_TIM_MspPostInit(&htim3);
 8000378:	4803      	ldr	r0, [pc, #12]	@ (8000388 <MX_TIM3_Init+0x11c>)
 800037a:	f000 f88d 	bl	8000498 <HAL_TIM_MspPostInit>

}
 800037e:	bf00      	nop
 8000380:	3738      	adds	r7, #56	@ 0x38
 8000382:	46bd      	mov	sp, r7
 8000384:	bd80      	pop	{r7, pc}
 8000386:	bf00      	nop
 8000388:	20000028 	.word	0x20000028
 800038c:	40000400 	.word	0x40000400

08000390 <MX_GPIO_Init>:
  * @brief GPIO Initialization Function
  * @param None
  * @retval None
  */
static void MX_GPIO_Init(void)
{
 8000390:	b480      	push	{r7}
 8000392:	b085      	sub	sp, #20
 8000394:	af00      	add	r7, sp, #0
/* USER CODE BEGIN MX_GPIO_Init_1 */
/* USER CODE END MX_GPIO_Init_1 */

  /* GPIO Ports Clock Enable */
  __HAL_RCC_GPIOD_CLK_ENABLE();
 8000396:	4b14      	ldr	r3, [pc, #80]	@ (80003e8 <MX_GPIO_Init+0x58>)
 8000398:	699b      	ldr	r3, [r3, #24]
 800039a:	4a13      	ldr	r2, [pc, #76]	@ (80003e8 <MX_GPIO_Init+0x58>)
 800039c:	f043 0320 	orr.w	r3, r3, #32
 80003a0:	6193      	str	r3, [r2, #24]
 80003a2:	4b11      	ldr	r3, [pc, #68]	@ (80003e8 <MX_GPIO_Init+0x58>)
 80003a4:	699b      	ldr	r3, [r3, #24]
 80003a6:	f003 0320 	and.w	r3, r3, #32
 80003aa:	60fb      	str	r3, [r7, #12]
 80003ac:	68fb      	ldr	r3, [r7, #12]
  __HAL_RCC_GPIOA_CLK_ENABLE();
 80003ae:	4b0e      	ldr	r3, [pc, #56]	@ (80003e8 <MX_GPIO_Init+0x58>)
 80003b0:	699b      	ldr	r3, [r3, #24]
 80003b2:	4a0d      	ldr	r2, [pc, #52]	@ (80003e8 <MX_GPIO_Init+0x58>)
 80003b4:	f043 0304 	orr.w	r3, r3, #4
 80003b8:	6193      	str	r3, [r2, #24]
 80003ba:	4b0b      	ldr	r3, [pc, #44]	@ (80003e8 <MX_GPIO_Init+0x58>)
 80003bc:	699b      	ldr	r3, [r3, #24]
 80003be:	f003 0304 	and.w	r3, r3, #4
 80003c2:	60bb      	str	r3, [r7, #8]
 80003c4:	68bb      	ldr	r3, [r7, #8]
  __HAL_RCC_GPIOB_CLK_ENABLE();
 80003c6:	4b08      	ldr	r3, [pc, #32]	@ (80003e8 <MX_GPIO_Init+0x58>)
 80003c8:	699b      	ldr	r3, [r3, #24]
 80003ca:	4a07      	ldr	r2, [pc, #28]	@ (80003e8 <MX_GPIO_Init+0x58>)
 80003cc:	f043 0308 	orr.w	r3, r3, #8
 80003d0:	6193      	str	r3, [r2, #24]
 80003d2:	4b05      	ldr	r3, [pc, #20]	@ (80003e8 <MX_GPIO_Init+0x58>)
 80003d4:	699b      	ldr	r3, [r3, #24]
 80003d6:	f003 0308 	and.w	r3, r3, #8
 80003da:	607b      	str	r3, [r7, #4]
 80003dc:	687b      	ldr	r3, [r7, #4]

/* USER CODE BEGIN MX_GPIO_Init_2 */
/* USER CODE END MX_GPIO_Init_2 */
}
 80003de:	bf00      	nop
 80003e0:	3714      	adds	r7, #20
 80003e2:	46bd      	mov	sp, r7
 80003e4:	bc80      	pop	{r7}
 80003e6:	4770      	bx	lr
 80003e8:	40021000 	.word	0x40021000

080003ec <Error_Handler>:
/**
  * @brief  This function is executed in case of error occurrence.
  * @retval None
  */
void Error_Handler(void)
{
 80003ec:	b480      	push	{r7}
 80003ee:	af00      	add	r7, sp, #0
  \details Disables IRQ interrupts by setting the I-bit in the CPSR.
           Can only be executed in Privileged modes.
 */
__STATIC_FORCEINLINE void __disable_irq(void)
{
  __ASM volatile ("cpsid i" : : : "memory");
 80003f0:	b672      	cpsid	i
}
 80003f2:	bf00      	nop
  /* USER CODE BEGIN Error_Handler_Debug */
  /* User can add his own implementation to report the HAL error return state */
  __disable_irq();
  while (1)
 80003f4:	bf00      	nop
 80003f6:	e7fd      	b.n	80003f4 <Error_Handler+0x8>

080003f8 <HAL_MspInit>:
void HAL_TIM_MspPostInit(TIM_HandleTypeDef *htim);
                    /**
  * Initializes the Global MSP.
  */
void HAL_MspInit(void)
{
 80003f8:	b480      	push	{r7}
 80003fa:	b085      	sub	sp, #20
 80003fc:	af00      	add	r7, sp, #0

  /* USER CODE BEGIN MspInit 0 */

  /* USER CODE END MspInit 0 */

  __HAL_RCC_AFIO_CLK_ENABLE();
 80003fe:	4b15      	ldr	r3, [pc, #84]	@ (8000454 <HAL_MspInit+0x5c>)
 8000400:	699b      	ldr	r3, [r3, #24]
 8000402:	4a14      	ldr	r2, [pc, #80]	@ (8000454 <HAL_MspInit+0x5c>)
 8000404:	f043 0301 	orr.w	r3, r3, #1
 8000408:	6193      	str	r3, [r2, #24]
 800040a:	4b12      	ldr	r3, [pc, #72]	@ (8000454 <HAL_MspInit+0x5c>)
 800040c:	699b      	ldr	r3, [r3, #24]
 800040e:	f003 0301 	and.w	r3, r3, #1
 8000412:	60bb      	str	r3, [r7, #8]
 8000414:	68bb      	ldr	r3, [r7, #8]
  __HAL_RCC_PWR_CLK_ENABLE();
 8000416:	4b0f      	ldr	r3, [pc, #60]	@ (8000454 <HAL_MspInit+0x5c>)
 8000418:	69db      	ldr	r3, [r3, #28]
 800041a:	4a0e      	ldr	r2, [pc, #56]	@ (8000454 <HAL_MspInit+0x5c>)
 800041c:	f043 5380 	orr.w	r3, r3, #268435456	@ 0x10000000
 8000420:	61d3      	str	r3, [r2, #28]
 8000422:	4b0c      	ldr	r3, [pc, #48]	@ (8000454 <HAL_MspInit+0x5c>)
 8000424:	69db      	ldr	r3, [r3, #28]
 8000426:	f003 5380 	and.w	r3, r3, #268435456	@ 0x10000000
 800042a:	607b      	str	r3, [r7, #4]
 800042c:	687b      	ldr	r3, [r7, #4]

  /* System interrupt init*/

  /** NOJTAG: JTAG-DP Disabled and SW-DP Enabled
  */
  __HAL_AFIO_REMAP_SWJ_NOJTAG();
 800042e:	4b0a      	ldr	r3, [pc, #40]	@ (8000458 <HAL_MspInit+0x60>)
 8000430:	685b      	ldr	r3, [r3, #4]
 8000432:	60fb      	str	r3, [r7, #12]
 8000434:	68fb      	ldr	r3, [r7, #12]
 8000436:	f023 63e0 	bic.w	r3, r3, #117440512	@ 0x7000000
 800043a:	60fb      	str	r3, [r7, #12]
 800043c:	68fb      	ldr	r3, [r7, #12]
 800043e:	f043 7300 	orr.w	r3, r3, #33554432	@ 0x2000000
 8000442:	60fb      	str	r3, [r7, #12]
 8000444:	4a04      	ldr	r2, [pc, #16]	@ (8000458 <HAL_MspInit+0x60>)
 8000446:	68fb      	ldr	r3, [r7, #12]
 8000448:	6053      	str	r3, [r2, #4]

  /* USER CODE BEGIN MspInit 1 */

  /* USER CODE END MspInit 1 */
}
 800044a:	bf00      	nop
 800044c:	3714      	adds	r7, #20
 800044e:	46bd      	mov	sp, r7
 8000450:	bc80      	pop	{r7}
 8000452:	4770      	bx	lr
 8000454:	40021000 	.word	0x40021000
 8000458:	40010000 	.word	0x40010000

0800045c <HAL_TIM_Base_MspInit>:
* This function configures the hardware resources used in this example
* @param htim_base: TIM_Base handle pointer
* @retval None
*/
void HAL_TIM_Base_MspInit(TIM_HandleTypeDef* htim_base)
{
 800045c:	b480      	push	{r7}
 800045e:	b085      	sub	sp, #20
 8000460:	af00      	add	r7, sp, #0
 8000462:	6078      	str	r0, [r7, #4]
  if(htim_base->Instance==TIM3)
 8000464:	687b      	ldr	r3, [r7, #4]
 8000466:	681b      	ldr	r3, [r3, #0]
 8000468:	4a09      	ldr	r2, [pc, #36]	@ (8000490 <HAL_TIM_Base_MspInit+0x34>)
 800046a:	4293      	cmp	r3, r2
 800046c:	d10b      	bne.n	8000486 <HAL_TIM_Base_MspInit+0x2a>
  {
  /* USER CODE BEGIN TIM3_MspInit 0 */

  /* USER CODE END TIM3_MspInit 0 */
    /* Peripheral clock enable */
    __HAL_RCC_TIM3_CLK_ENABLE();
 800046e:	4b09      	ldr	r3, [pc, #36]	@ (8000494 <HAL_TIM_Base_MspInit+0x38>)
 8000470:	69db      	ldr	r3, [r3, #28]
 8000472:	4a08      	ldr	r2, [pc, #32]	@ (8000494 <HAL_TIM_Base_MspInit+0x38>)
 8000474:	f043 0302 	orr.w	r3, r3, #2
 8000478:	61d3      	str	r3, [r2, #28]
 800047a:	4b06      	ldr	r3, [pc, #24]	@ (8000494 <HAL_TIM_Base_MspInit+0x38>)
 800047c:	69db      	ldr	r3, [r3, #28]
 800047e:	f003 0302 	and.w	r3, r3, #2
 8000482:	60fb      	str	r3, [r7, #12]
 8000484:	68fb      	ldr	r3, [r7, #12]

  /* USER CODE END TIM3_MspInit 1 */

  }

}
 8000486:	bf00      	nop
 8000488:	3714      	adds	r7, #20
 800048a:	46bd      	mov	sp, r7
 800048c:	bc80      	pop	{r7}
 800048e:	4770      	bx	lr
 8000490:	40000400 	.word	0x40000400
 8000494:	40021000 	.word	0x40021000

08000498 <HAL_TIM_MspPostInit>:

void HAL_TIM_MspPostInit(TIM_HandleTypeDef* htim)
{
 8000498:	b580      	push	{r7, lr}
 800049a:	b088      	sub	sp, #32
 800049c:	af00      	add	r7, sp, #0
 800049e:	6078      	str	r0, [r7, #4]
  GPIO_InitTypeDef GPIO_InitStruct = {0};
 80004a0:	f107 0310 	add.w	r3, r7, #16
 80004a4:	2200      	movs	r2, #0
 80004a6:	601a      	str	r2, [r3, #0]
 80004a8:	605a      	str	r2, [r3, #4]
 80004aa:	609a      	str	r2, [r3, #8]
 80004ac:	60da      	str	r2, [r3, #12]
  if(htim->Instance==TIM3)
 80004ae:	687b      	ldr	r3, [r7, #4]
 80004b0:	681b      	ldr	r3, [r3, #0]
 80004b2:	4a1b      	ldr	r2, [pc, #108]	@ (8000520 <HAL_TIM_MspPostInit+0x88>)
 80004b4:	4293      	cmp	r3, r2
 80004b6:	d12f      	bne.n	8000518 <HAL_TIM_MspPostInit+0x80>
  {
  /* USER CODE BEGIN TIM3_MspPostInit 0 */

  /* USER CODE END TIM3_MspPostInit 0 */

    __HAL_RCC_GPIOA_CLK_ENABLE();
 80004b8:	4b1a      	ldr	r3, [pc, #104]	@ (8000524 <HAL_TIM_MspPostInit+0x8c>)
 80004ba:	699b      	ldr	r3, [r3, #24]
 80004bc:	4a19      	ldr	r2, [pc, #100]	@ (8000524 <HAL_TIM_MspPostInit+0x8c>)
 80004be:	f043 0304 	orr.w	r3, r3, #4
 80004c2:	6193      	str	r3, [r2, #24]
 80004c4:	4b17      	ldr	r3, [pc, #92]	@ (8000524 <HAL_TIM_MspPostInit+0x8c>)
 80004c6:	699b      	ldr	r3, [r3, #24]
 80004c8:	f003 0304 	and.w	r3, r3, #4
 80004cc:	60fb      	str	r3, [r7, #12]
 80004ce:	68fb      	ldr	r3, [r7, #12]
    __HAL_RCC_GPIOB_CLK_ENABLE();
 80004d0:	4b14      	ldr	r3, [pc, #80]	@ (8000524 <HAL_TIM_MspPostInit+0x8c>)
 80004d2:	699b      	ldr	r3, [r3, #24]
 80004d4:	4a13      	ldr	r2, [pc, #76]	@ (8000524 <HAL_TIM_MspPostInit+0x8c>)
 80004d6:	f043 0308 	orr.w	r3, r3, #8
 80004da:	6193      	str	r3, [r2, #24]
 80004dc:	4b11      	ldr	r3, [pc, #68]	@ (8000524 <HAL_TIM_MspPostInit+0x8c>)
 80004de:	699b      	ldr	r3, [r3, #24]
 80004e0:	f003 0308 	and.w	r3, r3, #8
 80004e4:	60bb      	str	r3, [r7, #8]
 80004e6:	68bb      	ldr	r3, [r7, #8]
    /**TIM3 GPIO Configuration
    PA6     ------> TIM3_CH1
    PA7     ------> TIM3_CH2
    PB0     ------> TIM3_CH3
    */
    GPIO_InitStruct.Pin = GPIO_PIN_6|GPIO_PIN_7;
 80004e8:	23c0      	movs	r3, #192	@ 0xc0
 80004ea:	613b      	str	r3, [r7, #16]
    GPIO_InitStruct.Mode = GPIO_MODE_AF_PP;
 80004ec:	2302      	movs	r3, #2
 80004ee:	617b      	str	r3, [r7, #20]
    GPIO_InitStruct.Speed = GPIO_SPEED_FREQ_LOW;
 80004f0:	2302      	movs	r3, #2
 80004f2:	61fb      	str	r3, [r7, #28]
    HAL_GPIO_Init(GPIOA, &GPIO_InitStruct);
 80004f4:	f107 0310 	add.w	r3, r7, #16
 80004f8:	4619      	mov	r1, r3
 80004fa:	480b      	ldr	r0, [pc, #44]	@ (8000528 <HAL_TIM_MspPostInit+0x90>)
 80004fc:	f000 f9da 	bl	80008b4 <HAL_GPIO_Init>

    GPIO_InitStruct.Pin = GPIO_PIN_0;
 8000500:	2301      	movs	r3, #1
 8000502:	613b      	str	r3, [r7, #16]
    GPIO_InitStruct.Mode = GPIO_MODE_AF_PP;
 8000504:	2302      	movs	r3, #2
 8000506:	617b      	str	r3, [r7, #20]
    GPIO_InitStruct.Speed = GPIO_SPEED_FREQ_LOW;
 8000508:	2302      	movs	r3, #2
 800050a:	61fb      	str	r3, [r7, #28]
    HAL_GPIO_Init(GPIOB, &GPIO_InitStruct);
 800050c:	f107 0310 	add.w	r3, r7, #16
 8000510:	4619      	mov	r1, r3
 8000512:	4806      	ldr	r0, [pc, #24]	@ (800052c <HAL_TIM_MspPostInit+0x94>)
 8000514:	f000 f9ce 	bl	80008b4 <HAL_GPIO_Init>
  /* USER CODE BEGIN TIM3_MspPostInit 1 */

  /* USER CODE END TIM3_MspPostInit 1 */
  }

}
 8000518:	bf00      	nop
 800051a:	3720      	adds	r7, #32
 800051c:	46bd      	mov	sp, r7
 800051e:	bd80      	pop	{r7, pc}
 8000520:	40000400 	.word	0x40000400
 8000524:	40021000 	.word	0x40021000
 8000528:	40010800 	.word	0x40010800
 800052c:	40010c00 	.word	0x40010c00

08000530 <NMI_Handler>:
/******************************************************************************/
/**
  * @brief This function handles Non maskable interrupt.
  */
void NMI_Handler(void)
{
 8000530:	b480      	push	{r7}
 8000532:	af00      	add	r7, sp, #0
  /* USER CODE BEGIN NonMaskableInt_IRQn 0 */

  /* USER CODE END NonMaskableInt_IRQn 0 */
  /* USER CODE BEGIN NonMaskableInt_IRQn 1 */
   while (1)
 8000534:	bf00      	nop
 8000536:	e7fd      	b.n	8000534 <NMI_Handler+0x4>

08000538 <HardFault_Handler>:

/**
  * @brief This function handles Hard fault interrupt.
  */
void HardFault_Handler(void)
{
 8000538:	b480      	push	{r7}
 800053a:	af00      	add	r7, sp, #0
  /* USER CODE BEGIN HardFault_IRQn 0 */

  /* USER CODE END HardFault_IRQn 0 */
  while (1)
 800053c:	bf00      	nop
 800053e:	e7fd      	b.n	800053c <HardFault_Handler+0x4>

08000540 <MemManage_Handler>:

/**
  * @brief This function handles Memory management fault.
  */
void MemManage_Handler(void)
{
 8000540:	b480      	push	{r7}
 8000542:	af00      	add	r7, sp, #0
  /* USER CODE BEGIN MemoryManagement_IRQn 0 */

  /* USER CODE END MemoryManagement_IRQn 0 */
  while (1)
 8000544:	bf00      	nop
 8000546:	e7fd      	b.n	8000544 <MemManage_Handler+0x4>

08000548 <BusFault_Handler>:

/**
  * @brief This function handles Prefetch fault, memory access fault.
  */
void BusFault_Handler(void)
{
 8000548:	b480      	push	{r7}
 800054a:	af00      	add	r7, sp, #0
  /* USER CODE BEGIN BusFault_IRQn 0 */

  /* USER CODE END BusFault_IRQn 0 */
  while (1)
 800054c:	bf00      	nop
 800054e:	e7fd      	b.n	800054c <BusFault_Handler+0x4>

08000550 <UsageFault_Handler>:

/**
  * @brief This function handles Undefined instruction or illegal state.
  */
void UsageFault_Handler(void)
{
 8000550:	b480      	push	{r7}
 8000552:	af00      	add	r7, sp, #0
  /* USER CODE BEGIN UsageFault_IRQn 0 */

  /* USER CODE END UsageFault_IRQn 0 */
  while (1)
 8000554:	bf00      	nop
 8000556:	e7fd      	b.n	8000554 <UsageFault_Handler+0x4>

08000558 <SVC_Handler>:

/**
  * @brief This function handles System service call via SWI instruction.
  */
void SVC_Handler(void)
{
 8000558:	b480      	push	{r7}
 800055a:	af00      	add	r7, sp, #0

  /* USER CODE END SVCall_IRQn 0 */
  /* USER CODE BEGIN SVCall_IRQn 1 */

  /* USER CODE END SVCall_IRQn 1 */
}
 800055c:	bf00      	nop
 800055e:	46bd      	mov	sp, r7
 8000560:	bc80      	pop	{r7}
 8000562:	4770      	bx	lr

08000564 <DebugMon_Handler>:

/**
  * @brief This function handles Debug monitor.
  */
void DebugMon_Handler(void)
{
 8000564:	b480      	push	{r7}
 8000566:	af00      	add	r7, sp, #0

  /* USER CODE END DebugMonitor_IRQn 0 */
  /* USER CODE BEGIN DebugMonitor_IRQn 1 */

  /* USER CODE END DebugMonitor_IRQn 1 */
}
 8000568:	bf00      	nop
 800056a:	46bd      	mov	sp, r7
 800056c:	bc80      	pop	{r7}
 800056e:	4770      	bx	lr

08000570 <PendSV_Handler>:

/**
  * @brief This function handles Pendable request for system service.
  */
void PendSV_Handler(void)
{
 8000570:	b480      	push	{r7}
 8000572:	af00      	add	r7, sp, #0

  /* USER CODE END PendSV_IRQn 0 */
  /* USER CODE BEGIN PendSV_IRQn 1 */

  /* USER CODE END PendSV_IRQn 1 */
}
 8000574:	bf00      	nop
 8000576:	46bd      	mov	sp, r7
 8000578:	bc80      	pop	{r7}
 800057a:	4770      	bx	lr

0800057c <SysTick_Handler>:

/**
  * @brief This function handles System tick timer.
  */
void SysTick_Handler(void)
{
 800057c:	b580      	push	{r7, lr}
 800057e:	af00      	add	r7, sp, #0
  /* USER CODE BEGIN SysTick_IRQn 0 */

  /* USER CODE END SysTick_IRQn 0 */
  HAL_IncTick();
 8000580:	f000 f874 	bl	800066c <HAL_IncTick>
  /* USER CODE BEGIN SysTick_IRQn 1 */

  /* USER CODE END SysTick_IRQn 1 */
}
 8000584:	bf00      	nop
 8000586:	bd80      	pop	{r7, pc}

08000588 <SystemInit>:
  * @note   This function should be used only after reset.
  * @param  None
  * @retval None
  */
void SystemInit (void)
{
 8000588:	b480      	push	{r7}
 800058a:	af00      	add	r7, sp, #0

  /* Configure the Vector Table location -------------------------------------*/
#if defined(USER_VECT_TAB_ADDRESS)
  SCB->VTOR = VECT_TAB_BASE_ADDRESS | VECT_TAB_OFFSET; /* Vector Table Relocation in Internal SRAM. */
#endif /* USER_VECT_TAB_ADDRESS */
}
 800058c:	bf00      	nop
 800058e:	46bd      	mov	sp, r7
 8000590:	bc80      	pop	{r7}
 8000592:	4770      	bx	lr

08000594 <Reset_Handler>:
  .weak Reset_Handler
  .type Reset_Handler, %function
Reset_Handler:

/* Call the clock system initialization function.*/
    bl  SystemInit
 8000594:	f7ff fff8 	bl	8000588 <SystemInit>

/* Copy the data segment initializers from flash to SRAM */
  ldr r0, =_sdata
 8000598:	480b      	ldr	r0, [pc, #44]	@ (80005c8 <LoopFillZerobss+0xe>)
  ldr r1, =_edata
 800059a:	490c      	ldr	r1, [pc, #48]	@ (80005cc <LoopFillZerobss+0x12>)
  ldr r2, =_sidata
 800059c:	4a0c      	ldr	r2, [pc, #48]	@ (80005d0 <LoopFillZerobss+0x16>)
  movs r3, #0
 800059e:	2300      	movs	r3, #0
  b LoopCopyDataInit
 80005a0:	e002      	b.n	80005a8 <LoopCopyDataInit>

080005a2 <CopyDataInit>:

CopyDataInit:
  ldr r4, [r2, r3]
 80005a2:	58d4      	ldr	r4, [r2, r3]
  str r4, [r0, r3]
 80005a4:	50c4      	str	r4, [r0, r3]
  adds r3, r3, #4
 80005a6:	3304      	adds	r3, #4

080005a8 <LoopCopyDataInit>:

LoopCopyDataInit:
  adds r4, r0, r3
 80005a8:	18c4      	adds	r4, r0, r3
  cmp r4, r1
 80005aa:	428c      	cmp	r4, r1
  bcc CopyDataInit
 80005ac:	d3f9      	bcc.n	80005a2 <CopyDataInit>
  
/* Zero fill the bss segment. */
  ldr r2, =_sbss
 80005ae:	4a09      	ldr	r2, [pc, #36]	@ (80005d4 <LoopFillZerobss+0x1a>)
  ldr r4, =_ebss
 80005b0:	4c09      	ldr	r4, [pc, #36]	@ (80005d8 <LoopFillZerobss+0x1e>)
  movs r3, #0
 80005b2:	2300      	movs	r3, #0
  b LoopFillZerobss
 80005b4:	e001      	b.n	80005ba <LoopFillZerobss>

080005b6 <FillZerobss>:

FillZerobss:
  str  r3, [r2]
 80005b6:	6013      	str	r3, [r2, #0]
  adds r2, r2, #4
 80005b8:	3204      	adds	r2, #4

080005ba <LoopFillZerobss>:

LoopFillZerobss:
  cmp r2, r4
 80005ba:	42a2      	cmp	r2, r4
  bcc FillZerobss
 80005bc:	d3fb      	bcc.n	80005b6 <FillZerobss>

/* Call static constructors */
    bl __libc_init_array
 80005be:	f001 fcc5 	bl	8001f4c <__libc_init_array>
/* Call the application's entry point.*/
  bl main
 80005c2:	f7ff fdc3 	bl	800014c <main>
  bx lr
 80005c6:	4770      	bx	lr
  ldr r0, =_sdata
 80005c8:	20000000 	.word	0x20000000
  ldr r1, =_edata
 80005cc:	2000000c 	.word	0x2000000c
  ldr r2, =_sidata
 80005d0:	08001fd8 	.word	0x08001fd8
  ldr r2, =_sbss
 80005d4:	2000000c 	.word	0x2000000c
  ldr r4, =_ebss
 80005d8:	20000074 	.word	0x20000074

080005dc <ADC1_2_IRQHandler>:
 * @retval : None
*/
    .section .text.Default_Handler,"ax",%progbits
Default_Handler:
Infinite_Loop:
  b Infinite_Loop
 80005dc:	e7fe      	b.n	80005dc <ADC1_2_IRQHandler>
	...

080005e0 <HAL_Init>:
  *         need to ensure that the SysTick time base is always set to 1 millisecond
  *         to have correct HAL operation.
  * @retval HAL status
  */
HAL_StatusTypeDef HAL_Init(void)
{
 80005e0:	b580      	push	{r7, lr}
 80005e2:	af00      	add	r7, sp, #0
    defined(STM32F102x6) || defined(STM32F102xB) || \
    defined(STM32F103x6) || defined(STM32F103xB) || defined(STM32F103xE) || defined(STM32F103xG) || \
    defined(STM32F105xC) || defined(STM32F107xC)

  /* Prefetch buffer is not available on value line devices */
  __HAL_FLASH_PREFETCH_BUFFER_ENABLE();
 80005e4:	4b08      	ldr	r3, [pc, #32]	@ (8000608 <HAL_Init+0x28>)
 80005e6:	681b      	ldr	r3, [r3, #0]
 80005e8:	4a07      	ldr	r2, [pc, #28]	@ (8000608 <HAL_Init+0x28>)
 80005ea:	f043 0310 	orr.w	r3, r3, #16
 80005ee:	6013      	str	r3, [r2, #0]
#endif
#endif /* PREFETCH_ENABLE */

  /* Set Interrupt Group Priority */
  HAL_NVIC_SetPriorityGrouping(NVIC_PRIORITYGROUP_4);
 80005f0:	2003      	movs	r0, #3
 80005f2:	f000 f92b 	bl	800084c <HAL_NVIC_SetPriorityGrouping>

  /* Use systick as time base source and configure 1ms tick (default clock after Reset is HSI) */
  HAL_InitTick(TICK_INT_PRIORITY);
 80005f6:	200f      	movs	r0, #15
 80005f8:	f000 f808 	bl	800060c <HAL_InitTick>

  /* Init the low level hardware */
  HAL_MspInit();
 80005fc:	f7ff fefc 	bl	80003f8 <HAL_MspInit>

  /* Return function status */
  return HAL_OK;
 8000600:	2300      	movs	r3, #0
}
 8000602:	4618      	mov	r0, r3
 8000604:	bd80      	pop	{r7, pc}
 8000606:	bf00      	nop
 8000608:	40022000 	.word	0x40022000

0800060c <HAL_InitTick>:
  *       implementation  in user file.
  * @param TickPriority Tick interrupt priority.
  * @retval HAL status
  */
__weak HAL_StatusTypeDef HAL_InitTick(uint32_t TickPriority)
{
 800060c:	b580      	push	{r7, lr}
 800060e:	b082      	sub	sp, #8
 8000610:	af00      	add	r7, sp, #0
 8000612:	6078      	str	r0, [r7, #4]
  /* Configure the SysTick to have interrupt in 1ms time basis*/
  if (HAL_SYSTICK_Config(SystemCoreClock / (1000U / uwTickFreq)) > 0U)
 8000614:	4b12      	ldr	r3, [pc, #72]	@ (8000660 <HAL_InitTick+0x54>)
 8000616:	681a      	ldr	r2, [r3, #0]
 8000618:	4b12      	ldr	r3, [pc, #72]	@ (8000664 <HAL_InitTick+0x58>)
 800061a:	781b      	ldrb	r3, [r3, #0]
 800061c:	4619      	mov	r1, r3
 800061e:	f44f 737a 	mov.w	r3, #1000	@ 0x3e8
 8000622:	fbb3 f3f1 	udiv	r3, r3, r1
 8000626:	fbb2 f3f3 	udiv	r3, r2, r3
 800062a:	4618      	mov	r0, r3
 800062c:	f000 f935 	bl	800089a <HAL_SYSTICK_Config>
 8000630:	4603      	mov	r3, r0
 8000632:	2b00      	cmp	r3, #0
 8000634:	d001      	beq.n	800063a <HAL_InitTick+0x2e>
  {
    return HAL_ERROR;
 8000636:	2301      	movs	r3, #1
 8000638:	e00e      	b.n	8000658 <HAL_InitTick+0x4c>
  }

  /* Configure the SysTick IRQ priority */
  if (TickPriority < (1UL << __NVIC_PRIO_BITS))
 800063a:	687b      	ldr	r3, [r7, #4]
 800063c:	2b0f      	cmp	r3, #15
 800063e:	d80a      	bhi.n	8000656 <HAL_InitTick+0x4a>
  {
    HAL_NVIC_SetPriority(SysTick_IRQn, TickPriority, 0U);
 8000640:	2200      	movs	r2, #0
 8000642:	6879      	ldr	r1, [r7, #4]
 8000644:	f04f 30ff 	mov.w	r0, #4294967295
 8000648:	f000 f90b 	bl	8000862 <HAL_NVIC_SetPriority>
    uwTickPrio = TickPriority;
 800064c:	4a06      	ldr	r2, [pc, #24]	@ (8000668 <HAL_InitTick+0x5c>)
 800064e:	687b      	ldr	r3, [r7, #4]
 8000650:	6013      	str	r3, [r2, #0]
  {
    return HAL_ERROR;
  }

  /* Return function status */
  return HAL_OK;
 8000652:	2300      	movs	r3, #0
 8000654:	e000      	b.n	8000658 <HAL_InitTick+0x4c>
    return HAL_ERROR;
 8000656:	2301      	movs	r3, #1
}
 8000658:	4618      	mov	r0, r3
 800065a:	3708      	adds	r7, #8
 800065c:	46bd      	mov	sp, r7
 800065e:	bd80      	pop	{r7, pc}
 8000660:	20000000 	.word	0x20000000
 8000664:	20000008 	.word	0x20000008
 8000668:	20000004 	.word	0x20000004

0800066c <HAL_IncTick>:
  * @note This function is declared as __weak to be overwritten in case of other
  *      implementations in user file.
  * @retval None
  */
__weak void HAL_IncTick(void)
{
 800066c:	b480      	push	{r7}
 800066e:	af00      	add	r7, sp, #0
  uwTick += uwTickFreq;
 8000670:	4b05      	ldr	r3, [pc, #20]	@ (8000688 <HAL_IncTick+0x1c>)
 8000672:	781b      	ldrb	r3, [r3, #0]
 8000674:	461a      	mov	r2, r3
 8000676:	4b05      	ldr	r3, [pc, #20]	@ (800068c <HAL_IncTick+0x20>)
 8000678:	681b      	ldr	r3, [r3, #0]
 800067a:	4413      	add	r3, r2
 800067c:	4a03      	ldr	r2, [pc, #12]	@ (800068c <HAL_IncTick+0x20>)
 800067e:	6013      	str	r3, [r2, #0]
}
 8000680:	bf00      	nop
 8000682:	46bd      	mov	sp, r7
 8000684:	bc80      	pop	{r7}
 8000686:	4770      	bx	lr
 8000688:	20000008 	.word	0x20000008
 800068c:	20000070 	.word	0x20000070

08000690 <HAL_GetTick>:
  * @note  This function is declared as __weak to be overwritten in case of other
  *       implementations in user file.
  * @retval tick value
  */
__weak uint32_t HAL_GetTick(void)
{
 8000690:	b480      	push	{r7}
 8000692:	af00      	add	r7, sp, #0
  return uwTick;
 8000694:	4b02      	ldr	r3, [pc, #8]	@ (80006a0 <HAL_GetTick+0x10>)
 8000696:	681b      	ldr	r3, [r3, #0]
}
 8000698:	4618      	mov	r0, r3
 800069a:	46bd      	mov	sp, r7
 800069c:	bc80      	pop	{r7}
 800069e:	4770      	bx	lr
 80006a0:	20000070 	.word	0x20000070

080006a4 <HAL_Delay>:
  *       implementations in user file.
  * @param Delay specifies the delay time length, in milliseconds.
  * @retval None
  */
__weak void HAL_Delay(uint32_t Delay)
{
 80006a4:	b580      	push	{r7, lr}
 80006a6:	b084      	sub	sp, #16
 80006a8:	af00      	add	r7, sp, #0
 80006aa:	6078      	str	r0, [r7, #4]
  uint32_t tickstart = HAL_GetTick();
 80006ac:	f7ff fff0 	bl	8000690 <HAL_GetTick>
 80006b0:	60b8      	str	r0, [r7, #8]
  uint32_t wait = Delay;
 80006b2:	687b      	ldr	r3, [r7, #4]
 80006b4:	60fb      	str	r3, [r7, #12]

  /* Add a freq to guarantee minimum wait */
  if (wait < HAL_MAX_DELAY)
 80006b6:	68fb      	ldr	r3, [r7, #12]
 80006b8:	f1b3 3fff 	cmp.w	r3, #4294967295
 80006bc:	d005      	beq.n	80006ca <HAL_Delay+0x26>
  {
    wait += (uint32_t)(uwTickFreq);
 80006be:	4b0a      	ldr	r3, [pc, #40]	@ (80006e8 <HAL_Delay+0x44>)
 80006c0:	781b      	ldrb	r3, [r3, #0]
 80006c2:	461a      	mov	r2, r3
 80006c4:	68fb      	ldr	r3, [r7, #12]
 80006c6:	4413      	add	r3, r2
 80006c8:	60fb      	str	r3, [r7, #12]
  }

  while ((HAL_GetTick() - tickstart) < wait)
 80006ca:	bf00      	nop
 80006cc:	f7ff ffe0 	bl	8000690 <HAL_GetTick>
 80006d0:	4602      	mov	r2, r0
 80006d2:	68bb      	ldr	r3, [r7, #8]
 80006d4:	1ad3      	subs	r3, r2, r3
 80006d6:	68fa      	ldr	r2, [r7, #12]
 80006d8:	429a      	cmp	r2, r3
 80006da:	d8f7      	bhi.n	80006cc <HAL_Delay+0x28>
  {
  }
}
 80006dc:	bf00      	nop
 80006de:	bf00      	nop
 80006e0:	3710      	adds	r7, #16
 80006e2:	46bd      	mov	sp, r7
 80006e4:	bd80      	pop	{r7, pc}
 80006e6:	bf00      	nop
 80006e8:	20000008 	.word	0x20000008

080006ec <__NVIC_SetPriorityGrouping>:
           In case of a conflict between priority grouping and available
           priority bits (__NVIC_PRIO_BITS), the smallest possible priority group is set.
  \param [in]      PriorityGroup  Priority grouping field.
 */
__STATIC_INLINE void __NVIC_SetPriorityGrouping(uint32_t PriorityGroup)
{
 80006ec:	b480      	push	{r7}
 80006ee:	b085      	sub	sp, #20
 80006f0:	af00      	add	r7, sp, #0
 80006f2:	6078      	str	r0, [r7, #4]
  uint32_t reg_value;
  uint32_t PriorityGroupTmp = (PriorityGroup & (uint32_t)0x07UL);             /* only values 0..7 are used          */
 80006f4:	687b      	ldr	r3, [r7, #4]
 80006f6:	f003 0307 	and.w	r3, r3, #7
 80006fa:	60fb      	str	r3, [r7, #12]

  reg_value  =  SCB->AIRCR;                                                   /* read old register configuration    */
 80006fc:	4b0c      	ldr	r3, [pc, #48]	@ (8000730 <__NVIC_SetPriorityGrouping+0x44>)
 80006fe:	68db      	ldr	r3, [r3, #12]
 8000700:	60bb      	str	r3, [r7, #8]
  reg_value &= ~((uint32_t)(SCB_AIRCR_VECTKEY_Msk | SCB_AIRCR_PRIGROUP_Msk)); /* clear bits to change               */
 8000702:	68ba      	ldr	r2, [r7, #8]
 8000704:	f64f 03ff 	movw	r3, #63743	@ 0xf8ff
 8000708:	4013      	ands	r3, r2
 800070a:	60bb      	str	r3, [r7, #8]
  reg_value  =  (reg_value                                   |
                ((uint32_t)0x5FAUL << SCB_AIRCR_VECTKEY_Pos) |
                (PriorityGroupTmp << SCB_AIRCR_PRIGROUP_Pos) );               /* Insert write key and priority group */
 800070c:	68fb      	ldr	r3, [r7, #12]
 800070e:	021a      	lsls	r2, r3, #8
                ((uint32_t)0x5FAUL << SCB_AIRCR_VECTKEY_Pos) |
 8000710:	68bb      	ldr	r3, [r7, #8]
 8000712:	4313      	orrs	r3, r2
  reg_value  =  (reg_value                                   |
 8000714:	f043 63bf 	orr.w	r3, r3, #100139008	@ 0x5f80000
 8000718:	f443 3300 	orr.w	r3, r3, #131072	@ 0x20000
 800071c:	60bb      	str	r3, [r7, #8]
  SCB->AIRCR =  reg_value;
 800071e:	4a04      	ldr	r2, [pc, #16]	@ (8000730 <__NVIC_SetPriorityGrouping+0x44>)
 8000720:	68bb      	ldr	r3, [r7, #8]
 8000722:	60d3      	str	r3, [r2, #12]
}
 8000724:	bf00      	nop
 8000726:	3714      	adds	r7, #20
 8000728:	46bd      	mov	sp, r7
 800072a:	bc80      	pop	{r7}
 800072c:	4770      	bx	lr
 800072e:	bf00      	nop
 8000730:	e000ed00 	.word	0xe000ed00

08000734 <__NVIC_GetPriorityGrouping>:
  \brief   Get Priority Grouping
  \details Reads the priority grouping field from the NVIC Interrupt Controller.
  \return                Priority grouping field (SCB->AIRCR [10:8] PRIGROUP field).
 */
__STATIC_INLINE uint32_t __NVIC_GetPriorityGrouping(void)
{
 8000734:	b480      	push	{r7}
 8000736:	af00      	add	r7, sp, #0
  return ((uint32_t)((SCB->AIRCR & SCB_AIRCR_PRIGROUP_Msk) >> SCB_AIRCR_PRIGROUP_Pos));
 8000738:	4b04      	ldr	r3, [pc, #16]	@ (800074c <__NVIC_GetPriorityGrouping+0x18>)
 800073a:	68db      	ldr	r3, [r3, #12]
 800073c:	0a1b      	lsrs	r3, r3, #8
 800073e:	f003 0307 	and.w	r3, r3, #7
}
 8000742:	4618      	mov	r0, r3
 8000744:	46bd      	mov	sp, r7
 8000746:	bc80      	pop	{r7}
 8000748:	4770      	bx	lr
 800074a:	bf00      	nop
 800074c:	e000ed00 	.word	0xe000ed00

08000750 <__NVIC_SetPriority>:
  \param [in]      IRQn  Interrupt number.
  \param [in]  priority  Priority to set.
  \note    The priority cannot be set for every processor exception.
 */
__STATIC_INLINE void __NVIC_SetPriority(IRQn_Type IRQn, uint32_t priority)
{
 8000750:	b480      	push	{r7}
 8000752:	b083      	sub	sp, #12
 8000754:	af00      	add	r7, sp, #0
 8000756:	4603      	mov	r3, r0
 8000758:	6039      	str	r1, [r7, #0]
 800075a:	71fb      	strb	r3, [r7, #7]
  if ((int32_t)(IRQn) >= 0)
 800075c:	f997 3007 	ldrsb.w	r3, [r7, #7]
 8000760:	2b00      	cmp	r3, #0
 8000762:	db0a      	blt.n	800077a <__NVIC_SetPriority+0x2a>
  {
    NVIC->IP[((uint32_t)IRQn)]               = (uint8_t)((priority << (8U - __NVIC_PRIO_BITS)) & (uint32_t)0xFFUL);
 8000764:	683b      	ldr	r3, [r7, #0]
 8000766:	b2da      	uxtb	r2, r3
 8000768:	490c      	ldr	r1, [pc, #48]	@ (800079c <__NVIC_SetPriority+0x4c>)
 800076a:	f997 3007 	ldrsb.w	r3, [r7, #7]
 800076e:	0112      	lsls	r2, r2, #4
 8000770:	b2d2      	uxtb	r2, r2
 8000772:	440b      	add	r3, r1
 8000774:	f883 2300 	strb.w	r2, [r3, #768]	@ 0x300
  }
  else
  {
    SCB->SHP[(((uint32_t)IRQn) & 0xFUL)-4UL] = (uint8_t)((priority << (8U - __NVIC_PRIO_BITS)) & (uint32_t)0xFFUL);
  }
}
 8000778:	e00a      	b.n	8000790 <__NVIC_SetPriority+0x40>
    SCB->SHP[(((uint32_t)IRQn) & 0xFUL)-4UL] = (uint8_t)((priority << (8U - __NVIC_PRIO_BITS)) & (uint32_t)0xFFUL);
 800077a:	683b      	ldr	r3, [r7, #0]
 800077c:	b2da      	uxtb	r2, r3
 800077e:	4908      	ldr	r1, [pc, #32]	@ (80007a0 <__NVIC_SetPriority+0x50>)
 8000780:	79fb      	ldrb	r3, [r7, #7]
 8000782:	f003 030f 	and.w	r3, r3, #15
 8000786:	3b04      	subs	r3, #4
 8000788:	0112      	lsls	r2, r2, #4
 800078a:	b2d2      	uxtb	r2, r2
 800078c:	440b      	add	r3, r1
 800078e:	761a      	strb	r2, [r3, #24]
}
 8000790:	bf00      	nop
 8000792:	370c      	adds	r7, #12
 8000794:	46bd      	mov	sp, r7
 8000796:	bc80      	pop	{r7}
 8000798:	4770      	bx	lr
 800079a:	bf00      	nop
 800079c:	e000e100 	.word	0xe000e100
 80007a0:	e000ed00 	.word	0xe000ed00

080007a4 <NVIC_EncodePriority>:
  \param [in]   PreemptPriority  Preemptive priority value (starting from 0).
  \param [in]       SubPriority  Subpriority value (starting from 0).
  \return                        Encoded priority. Value can be used in the function \ref NVIC_SetPriority().
 */
__STATIC_INLINE uint32_t NVIC_EncodePriority (uint32_t PriorityGroup, uint32_t PreemptPriority, uint32_t SubPriority)
{
 80007a4:	b480      	push	{r7}
 80007a6:	b089      	sub	sp, #36	@ 0x24
 80007a8:	af00      	add	r7, sp, #0
 80007aa:	60f8      	str	r0, [r7, #12]
 80007ac:	60b9      	str	r1, [r7, #8]
 80007ae:	607a      	str	r2, [r7, #4]
  uint32_t PriorityGroupTmp = (PriorityGroup & (uint32_t)0x07UL);   /* only values 0..7 are used          */
 80007b0:	68fb      	ldr	r3, [r7, #12]
 80007b2:	f003 0307 	and.w	r3, r3, #7
 80007b6:	61fb      	str	r3, [r7, #28]
  uint32_t PreemptPriorityBits;
  uint32_t SubPriorityBits;

  PreemptPriorityBits = ((7UL - PriorityGroupTmp) > (uint32_t)(__NVIC_PRIO_BITS)) ? (uint32_t)(__NVIC_PRIO_BITS) : (uint32_t)(7UL - PriorityGroupTmp);
 80007b8:	69fb      	ldr	r3, [r7, #28]
 80007ba:	f1c3 0307 	rsb	r3, r3, #7
 80007be:	2b04      	cmp	r3, #4
 80007c0:	bf28      	it	cs
 80007c2:	2304      	movcs	r3, #4
 80007c4:	61bb      	str	r3, [r7, #24]
  SubPriorityBits     = ((PriorityGroupTmp + (uint32_t)(__NVIC_PRIO_BITS)) < (uint32_t)7UL) ? (uint32_t)0UL : (uint32_t)((PriorityGroupTmp - 7UL) + (uint32_t)(__NVIC_PRIO_BITS));
 80007c6:	69fb      	ldr	r3, [r7, #28]
 80007c8:	3304      	adds	r3, #4
 80007ca:	2b06      	cmp	r3, #6
 80007cc:	d902      	bls.n	80007d4 <NVIC_EncodePriority+0x30>
 80007ce:	69fb      	ldr	r3, [r7, #28]
 80007d0:	3b03      	subs	r3, #3
 80007d2:	e000      	b.n	80007d6 <NVIC_EncodePriority+0x32>
 80007d4:	2300      	movs	r3, #0
 80007d6:	617b      	str	r3, [r7, #20]

  return (
           ((PreemptPriority & (uint32_t)((1UL << (PreemptPriorityBits)) - 1UL)) << SubPriorityBits) |
 80007d8:	f04f 32ff 	mov.w	r2, #4294967295
 80007dc:	69bb      	ldr	r3, [r7, #24]
 80007de:	fa02 f303 	lsl.w	r3, r2, r3
 80007e2:	43da      	mvns	r2, r3
 80007e4:	68bb      	ldr	r3, [r7, #8]
 80007e6:	401a      	ands	r2, r3
 80007e8:	697b      	ldr	r3, [r7, #20]
 80007ea:	409a      	lsls	r2, r3
           ((SubPriority     & (uint32_t)((1UL << (SubPriorityBits    )) - 1UL)))
 80007ec:	f04f 31ff 	mov.w	r1, #4294967295
 80007f0:	697b      	ldr	r3, [r7, #20]
 80007f2:	fa01 f303 	lsl.w	r3, r1, r3
 80007f6:	43d9      	mvns	r1, r3
 80007f8:	687b      	ldr	r3, [r7, #4]
 80007fa:	400b      	ands	r3, r1
           ((PreemptPriority & (uint32_t)((1UL << (PreemptPriorityBits)) - 1UL)) << SubPriorityBits) |
 80007fc:	4313      	orrs	r3, r2
         );
}
 80007fe:	4618      	mov	r0, r3
 8000800:	3724      	adds	r7, #36	@ 0x24
 8000802:	46bd      	mov	sp, r7
 8000804:	bc80      	pop	{r7}
 8000806:	4770      	bx	lr

08000808 <SysTick_Config>:
  \note    When the variable <b>__Vendor_SysTickConfig</b> is set to 1, then the
           function <b>SysTick_Config</b> is not included. In this case, the file <b><i>device</i>.h</b>
           must contain a vendor-specific implementation of this function.
 */
__STATIC_INLINE uint32_t SysTick_Config(uint32_t ticks)
{
 8000808:	b580      	push	{r7, lr}
 800080a:	b082      	sub	sp, #8
 800080c:	af00      	add	r7, sp, #0
 800080e:	6078      	str	r0, [r7, #4]
  if ((ticks - 1UL) > SysTick_LOAD_RELOAD_Msk)
 8000810:	687b      	ldr	r3, [r7, #4]
 8000812:	3b01      	subs	r3, #1
 8000814:	f1b3 7f80 	cmp.w	r3, #16777216	@ 0x1000000
 8000818:	d301      	bcc.n	800081e <SysTick_Config+0x16>
  {
    return (1UL);                                                   /* Reload value impossible */
 800081a:	2301      	movs	r3, #1
 800081c:	e00f      	b.n	800083e <SysTick_Config+0x36>
  }

  SysTick->LOAD  = (uint32_t)(ticks - 1UL);                         /* set reload register */
 800081e:	4a0a      	ldr	r2, [pc, #40]	@ (8000848 <SysTick_Config+0x40>)
 8000820:	687b      	ldr	r3, [r7, #4]
 8000822:	3b01      	subs	r3, #1
 8000824:	6053      	str	r3, [r2, #4]
  NVIC_SetPriority (SysTick_IRQn, (1UL << __NVIC_PRIO_BITS) - 1UL); /* set Priority for Systick Interrupt */
 8000826:	210f      	movs	r1, #15
 8000828:	f04f 30ff 	mov.w	r0, #4294967295
 800082c:	f7ff ff90 	bl	8000750 <__NVIC_SetPriority>
  SysTick->VAL   = 0UL;                                             /* Load the SysTick Counter Value */
 8000830:	4b05      	ldr	r3, [pc, #20]	@ (8000848 <SysTick_Config+0x40>)
 8000832:	2200      	movs	r2, #0
 8000834:	609a      	str	r2, [r3, #8]
  SysTick->CTRL  = SysTick_CTRL_CLKSOURCE_Msk |
 8000836:	4b04      	ldr	r3, [pc, #16]	@ (8000848 <SysTick_Config+0x40>)
 8000838:	2207      	movs	r2, #7
 800083a:	601a      	str	r2, [r3, #0]
                   SysTick_CTRL_TICKINT_Msk   |
                   SysTick_CTRL_ENABLE_Msk;                         /* Enable SysTick IRQ and SysTick Timer */
  return (0UL);                                                     /* Function successful */
 800083c:	2300      	movs	r3, #0
}
 800083e:	4618      	mov	r0, r3
 8000840:	3708      	adds	r7, #8
 8000842:	46bd      	mov	sp, r7
 8000844:	bd80      	pop	{r7, pc}
 8000846:	bf00      	nop
 8000848:	e000e010 	.word	0xe000e010

0800084c <HAL_NVIC_SetPriorityGrouping>:
  * @note   When the NVIC_PriorityGroup_0 is selected, IRQ preemption is no more possible. 
  *         The pending IRQ priority will be managed only by the subpriority. 
  * @retval None
  */
void HAL_NVIC_SetPriorityGrouping(uint32_t PriorityGroup)
{
 800084c:	b580      	push	{r7, lr}
 800084e:	b082      	sub	sp, #8
 8000850:	af00      	add	r7, sp, #0
 8000852:	6078      	str	r0, [r7, #4]
  /* Check the parameters */
  assert_param(IS_NVIC_PRIORITY_GROUP(PriorityGroup));
  
  /* Set the PRIGROUP[10:8] bits according to the PriorityGroup parameter value */
  NVIC_SetPriorityGrouping(PriorityGroup);
 8000854:	6878      	ldr	r0, [r7, #4]
 8000856:	f7ff ff49 	bl	80006ec <__NVIC_SetPriorityGrouping>
}
 800085a:	bf00      	nop
 800085c:	3708      	adds	r7, #8
 800085e:	46bd      	mov	sp, r7
 8000860:	bd80      	pop	{r7, pc}

08000862 <HAL_NVIC_SetPriority>:
  *         This parameter can be a value between 0 and 15
  *         A lower priority value indicates a higher priority.          
  * @retval None
  */
void HAL_NVIC_SetPriority(IRQn_Type IRQn, uint32_t PreemptPriority, uint32_t SubPriority)
{ 
 8000862:	b580      	push	{r7, lr}
 8000864:	b086      	sub	sp, #24
 8000866:	af00      	add	r7, sp, #0
 8000868:	4603      	mov	r3, r0
 800086a:	60b9      	str	r1, [r7, #8]
 800086c:	607a      	str	r2, [r7, #4]
 800086e:	73fb      	strb	r3, [r7, #15]
  uint32_t prioritygroup = 0x00U;
 8000870:	2300      	movs	r3, #0
 8000872:	617b      	str	r3, [r7, #20]
  
  /* Check the parameters */
  assert_param(IS_NVIC_SUB_PRIORITY(SubPriority));
  assert_param(IS_NVIC_PREEMPTION_PRIORITY(PreemptPriority));
  
  prioritygroup = NVIC_GetPriorityGrouping();
 8000874:	f7ff ff5e 	bl	8000734 <__NVIC_GetPriorityGrouping>
 8000878:	6178      	str	r0, [r7, #20]
  
  NVIC_SetPriority(IRQn, NVIC_EncodePriority(prioritygroup, PreemptPriority, SubPriority));
 800087a:	687a      	ldr	r2, [r7, #4]
 800087c:	68b9      	ldr	r1, [r7, #8]
 800087e:	6978      	ldr	r0, [r7, #20]
 8000880:	f7ff ff90 	bl	80007a4 <NVIC_EncodePriority>
 8000884:	4602      	mov	r2, r0
 8000886:	f997 300f 	ldrsb.w	r3, [r7, #15]
 800088a:	4611      	mov	r1, r2
 800088c:	4618      	mov	r0, r3
 800088e:	f7ff ff5f 	bl	8000750 <__NVIC_SetPriority>
}
 8000892:	bf00      	nop
 8000894:	3718      	adds	r7, #24
 8000896:	46bd      	mov	sp, r7
 8000898:	bd80      	pop	{r7, pc}

0800089a <HAL_SYSTICK_Config>:
  * @param  TicksNumb: Specifies the ticks Number of ticks between two interrupts.
  * @retval status:  - 0  Function succeeded.
  *                  - 1  Function failed.
  */
uint32_t HAL_SYSTICK_Config(uint32_t TicksNumb)
{
 800089a:	b580      	push	{r7, lr}
 800089c:	b082      	sub	sp, #8
 800089e:	af00      	add	r7, sp, #0
 80008a0:	6078      	str	r0, [r7, #4]
   return SysTick_Config(TicksNumb);
 80008a2:	6878      	ldr	r0, [r7, #4]
 80008a4:	f7ff ffb0 	bl	8000808 <SysTick_Config>
 80008a8:	4603      	mov	r3, r0
}
 80008aa:	4618      	mov	r0, r3
 80008ac:	3708      	adds	r7, #8
 80008ae:	46bd      	mov	sp, r7
 80008b0:	bd80      	pop	{r7, pc}
	...

080008b4 <HAL_GPIO_Init>:
  * @param  GPIO_Init: pointer to a GPIO_InitTypeDef structure that contains
  *         the configuration information for the specified GPIO peripheral.
  * @retval None
  */
void HAL_GPIO_Init(GPIO_TypeDef  *GPIOx, GPIO_InitTypeDef *GPIO_Init)
{
 80008b4:	b480      	push	{r7}
 80008b6:	b08b      	sub	sp, #44	@ 0x2c
 80008b8:	af00      	add	r7, sp, #0
 80008ba:	6078      	str	r0, [r7, #4]
 80008bc:	6039      	str	r1, [r7, #0]
  uint32_t position = 0x00u;
 80008be:	2300      	movs	r3, #0
 80008c0:	627b      	str	r3, [r7, #36]	@ 0x24
  uint32_t ioposition;
  uint32_t iocurrent;
  uint32_t temp;
  uint32_t config = 0x00u;
 80008c2:	2300      	movs	r3, #0
 80008c4:	623b      	str	r3, [r7, #32]
  assert_param(IS_GPIO_ALL_INSTANCE(GPIOx));
  assert_param(IS_GPIO_PIN(GPIO_Init->Pin));
  assert_param(IS_GPIO_MODE(GPIO_Init->Mode));

  /* Configure the port pins */
  while (((GPIO_Init->Pin) >> position) != 0x00u)
 80008c6:	e169      	b.n	8000b9c <HAL_GPIO_Init+0x2e8>
  {
    /* Get the IO position */
    ioposition = (0x01uL << position);
 80008c8:	2201      	movs	r2, #1
 80008ca:	6a7b      	ldr	r3, [r7, #36]	@ 0x24
 80008cc:	fa02 f303 	lsl.w	r3, r2, r3
 80008d0:	61fb      	str	r3, [r7, #28]

    /* Get the current IO position */
    iocurrent = (uint32_t)(GPIO_Init->Pin) & ioposition;
 80008d2:	683b      	ldr	r3, [r7, #0]
 80008d4:	681b      	ldr	r3, [r3, #0]
 80008d6:	69fa      	ldr	r2, [r7, #28]
 80008d8:	4013      	ands	r3, r2
 80008da:	61bb      	str	r3, [r7, #24]

    if (iocurrent == ioposition)
 80008dc:	69ba      	ldr	r2, [r7, #24]
 80008de:	69fb      	ldr	r3, [r7, #28]
 80008e0:	429a      	cmp	r2, r3
 80008e2:	f040 8158 	bne.w	8000b96 <HAL_GPIO_Init+0x2e2>
    {
      /* Check the Alternate function parameters */
      assert_param(IS_GPIO_AF_INSTANCE(GPIOx));

      /* Based on the required mode, filling config variable with MODEy[1:0] and CNFy[3:2] corresponding bits */
      switch (GPIO_Init->Mode)
 80008e6:	683b      	ldr	r3, [r7, #0]
 80008e8:	685b      	ldr	r3, [r3, #4]
 80008ea:	4a9a      	ldr	r2, [pc, #616]	@ (8000b54 <HAL_GPIO_Init+0x2a0>)
 80008ec:	4293      	cmp	r3, r2
 80008ee:	d05e      	beq.n	80009ae <HAL_GPIO_Init+0xfa>
 80008f0:	4a98      	ldr	r2, [pc, #608]	@ (8000b54 <HAL_GPIO_Init+0x2a0>)
 80008f2:	4293      	cmp	r3, r2
 80008f4:	d875      	bhi.n	80009e2 <HAL_GPIO_Init+0x12e>
 80008f6:	4a98      	ldr	r2, [pc, #608]	@ (8000b58 <HAL_GPIO_Init+0x2a4>)
 80008f8:	4293      	cmp	r3, r2
 80008fa:	d058      	beq.n	80009ae <HAL_GPIO_Init+0xfa>
 80008fc:	4a96      	ldr	r2, [pc, #600]	@ (8000b58 <HAL_GPIO_Init+0x2a4>)
 80008fe:	4293      	cmp	r3, r2
 8000900:	d86f      	bhi.n	80009e2 <HAL_GPIO_Init+0x12e>
 8000902:	4a96      	ldr	r2, [pc, #600]	@ (8000b5c <HAL_GPIO_Init+0x2a8>)
 8000904:	4293      	cmp	r3, r2
 8000906:	d052      	beq.n	80009ae <HAL_GPIO_Init+0xfa>
 8000908:	4a94      	ldr	r2, [pc, #592]	@ (8000b5c <HAL_GPIO_Init+0x2a8>)
 800090a:	4293      	cmp	r3, r2
 800090c:	d869      	bhi.n	80009e2 <HAL_GPIO_Init+0x12e>
 800090e:	4a94      	ldr	r2, [pc, #592]	@ (8000b60 <HAL_GPIO_Init+0x2ac>)
 8000910:	4293      	cmp	r3, r2
 8000912:	d04c      	beq.n	80009ae <HAL_GPIO_Init+0xfa>
 8000914:	4a92      	ldr	r2, [pc, #584]	@ (8000b60 <HAL_GPIO_Init+0x2ac>)
 8000916:	4293      	cmp	r3, r2
 8000918:	d863      	bhi.n	80009e2 <HAL_GPIO_Init+0x12e>
 800091a:	4a92      	ldr	r2, [pc, #584]	@ (8000b64 <HAL_GPIO_Init+0x2b0>)
 800091c:	4293      	cmp	r3, r2
 800091e:	d046      	beq.n	80009ae <HAL_GPIO_Init+0xfa>
 8000920:	4a90      	ldr	r2, [pc, #576]	@ (8000b64 <HAL_GPIO_Init+0x2b0>)
 8000922:	4293      	cmp	r3, r2
 8000924:	d85d      	bhi.n	80009e2 <HAL_GPIO_Init+0x12e>
 8000926:	2b12      	cmp	r3, #18
 8000928:	d82a      	bhi.n	8000980 <HAL_GPIO_Init+0xcc>
 800092a:	2b12      	cmp	r3, #18
 800092c:	d859      	bhi.n	80009e2 <HAL_GPIO_Init+0x12e>
 800092e:	a201      	add	r2, pc, #4	@ (adr r2, 8000934 <HAL_GPIO_Init+0x80>)
 8000930:	f852 f023 	ldr.w	pc, [r2, r3, lsl #2]
 8000934:	080009af 	.word	0x080009af
 8000938:	08000989 	.word	0x08000989
 800093c:	0800099b 	.word	0x0800099b
 8000940:	080009dd 	.word	0x080009dd
 8000944:	080009e3 	.word	0x080009e3
 8000948:	080009e3 	.word	0x080009e3
 800094c:	080009e3 	.word	0x080009e3
 8000950:	080009e3 	.word	0x080009e3
 8000954:	080009e3 	.word	0x080009e3
 8000958:	080009e3 	.word	0x080009e3
 800095c:	080009e3 	.word	0x080009e3
 8000960:	080009e3 	.word	0x080009e3
 8000964:	080009e3 	.word	0x080009e3
 8000968:	080009e3 	.word	0x080009e3
 800096c:	080009e3 	.word	0x080009e3
 8000970:	080009e3 	.word	0x080009e3
 8000974:	080009e3 	.word	0x080009e3
 8000978:	08000991 	.word	0x08000991
 800097c:	080009a5 	.word	0x080009a5
 8000980:	4a79      	ldr	r2, [pc, #484]	@ (8000b68 <HAL_GPIO_Init+0x2b4>)
 8000982:	4293      	cmp	r3, r2
 8000984:	d013      	beq.n	80009ae <HAL_GPIO_Init+0xfa>
          config = GPIO_CR_MODE_INPUT + GPIO_CR_CNF_ANALOG;
          break;

        /* Parameters are checked with assert_param */
        default:
          break;
 8000986:	e02c      	b.n	80009e2 <HAL_GPIO_Init+0x12e>
          config = GPIO_Init->Speed + GPIO_CR_CNF_GP_OUTPUT_PP;
 8000988:	683b      	ldr	r3, [r7, #0]
 800098a:	68db      	ldr	r3, [r3, #12]
 800098c:	623b      	str	r3, [r7, #32]
          break;
 800098e:	e029      	b.n	80009e4 <HAL_GPIO_Init+0x130>
          config = GPIO_Init->Speed + GPIO_CR_CNF_GP_OUTPUT_OD;
 8000990:	683b      	ldr	r3, [r7, #0]
 8000992:	68db      	ldr	r3, [r3, #12]
 8000994:	3304      	adds	r3, #4
 8000996:	623b      	str	r3, [r7, #32]
          break;
 8000998:	e024      	b.n	80009e4 <HAL_GPIO_Init+0x130>
          config = GPIO_Init->Speed + GPIO_CR_CNF_AF_OUTPUT_PP;
 800099a:	683b      	ldr	r3, [r7, #0]
 800099c:	68db      	ldr	r3, [r3, #12]
 800099e:	3308      	adds	r3, #8
 80009a0:	623b      	str	r3, [r7, #32]
          break;
 80009a2:	e01f      	b.n	80009e4 <HAL_GPIO_Init+0x130>
          config = GPIO_Init->Speed + GPIO_CR_CNF_AF_OUTPUT_OD;
 80009a4:	683b      	ldr	r3, [r7, #0]
 80009a6:	68db      	ldr	r3, [r3, #12]
 80009a8:	330c      	adds	r3, #12
 80009aa:	623b      	str	r3, [r7, #32]
          break;
 80009ac:	e01a      	b.n	80009e4 <HAL_GPIO_Init+0x130>
          if (GPIO_Init->Pull == GPIO_NOPULL)
 80009ae:	683b      	ldr	r3, [r7, #0]
 80009b0:	689b      	ldr	r3, [r3, #8]
 80009b2:	2b00      	cmp	r3, #0
 80009b4:	d102      	bne.n	80009bc <HAL_GPIO_Init+0x108>
            config = GPIO_CR_MODE_INPUT + GPIO_CR_CNF_INPUT_FLOATING;
 80009b6:	2304      	movs	r3, #4
 80009b8:	623b      	str	r3, [r7, #32]
          break;
 80009ba:	e013      	b.n	80009e4 <HAL_GPIO_Init+0x130>
          else if (GPIO_Init->Pull == GPIO_PULLUP)
 80009bc:	683b      	ldr	r3, [r7, #0]
 80009be:	689b      	ldr	r3, [r3, #8]
 80009c0:	2b01      	cmp	r3, #1
 80009c2:	d105      	bne.n	80009d0 <HAL_GPIO_Init+0x11c>
            config = GPIO_CR_MODE_INPUT + GPIO_CR_CNF_INPUT_PU_PD;
 80009c4:	2308      	movs	r3, #8
 80009c6:	623b      	str	r3, [r7, #32]
            GPIOx->BSRR = ioposition;
 80009c8:	687b      	ldr	r3, [r7, #4]
 80009ca:	69fa      	ldr	r2, [r7, #28]
 80009cc:	611a      	str	r2, [r3, #16]
          break;
 80009ce:	e009      	b.n	80009e4 <HAL_GPIO_Init+0x130>
            config = GPIO_CR_MODE_INPUT + GPIO_CR_CNF_INPUT_PU_PD;
 80009d0:	2308      	movs	r3, #8
 80009d2:	623b      	str	r3, [r7, #32]
            GPIOx->BRR = ioposition;
 80009d4:	687b      	ldr	r3, [r7, #4]
 80009d6:	69fa      	ldr	r2, [r7, #28]
 80009d8:	615a      	str	r2, [r3, #20]
          break;
 80009da:	e003      	b.n	80009e4 <HAL_GPIO_Init+0x130>
          config = GPIO_CR_MODE_INPUT + GPIO_CR_CNF_ANALOG;
 80009dc:	2300      	movs	r3, #0
 80009de:	623b      	str	r3, [r7, #32]
          break;
 80009e0:	e000      	b.n	80009e4 <HAL_GPIO_Init+0x130>
          break;
 80009e2:	bf00      	nop
      }

      /* Check if the current bit belongs to first half or last half of the pin count number
       in order to address CRH or CRL register*/
      configregister = (iocurrent < GPIO_PIN_8) ? &GPIOx->CRL     : &GPIOx->CRH;
 80009e4:	69bb      	ldr	r3, [r7, #24]
 80009e6:	2bff      	cmp	r3, #255	@ 0xff
 80009e8:	d801      	bhi.n	80009ee <HAL_GPIO_Init+0x13a>
 80009ea:	687b      	ldr	r3, [r7, #4]
 80009ec:	e001      	b.n	80009f2 <HAL_GPIO_Init+0x13e>
 80009ee:	687b      	ldr	r3, [r7, #4]
 80009f0:	3304      	adds	r3, #4
 80009f2:	617b      	str	r3, [r7, #20]
      registeroffset = (iocurrent < GPIO_PIN_8) ? (position << 2u) : ((position - 8u) << 2u);
 80009f4:	69bb      	ldr	r3, [r7, #24]
 80009f6:	2bff      	cmp	r3, #255	@ 0xff
 80009f8:	d802      	bhi.n	8000a00 <HAL_GPIO_Init+0x14c>
 80009fa:	6a7b      	ldr	r3, [r7, #36]	@ 0x24
 80009fc:	009b      	lsls	r3, r3, #2
 80009fe:	e002      	b.n	8000a06 <HAL_GPIO_Init+0x152>
 8000a00:	6a7b      	ldr	r3, [r7, #36]	@ 0x24
 8000a02:	3b08      	subs	r3, #8
 8000a04:	009b      	lsls	r3, r3, #2
 8000a06:	613b      	str	r3, [r7, #16]

      /* Apply the new configuration of the pin to the register */
      MODIFY_REG((*configregister), ((GPIO_CRL_MODE0 | GPIO_CRL_CNF0) << registeroffset), (config << registeroffset));
 8000a08:	697b      	ldr	r3, [r7, #20]
 8000a0a:	681a      	ldr	r2, [r3, #0]
 8000a0c:	210f      	movs	r1, #15
 8000a0e:	693b      	ldr	r3, [r7, #16]
 8000a10:	fa01 f303 	lsl.w	r3, r1, r3
 8000a14:	43db      	mvns	r3, r3
 8000a16:	401a      	ands	r2, r3
 8000a18:	6a39      	ldr	r1, [r7, #32]
 8000a1a:	693b      	ldr	r3, [r7, #16]
 8000a1c:	fa01 f303 	lsl.w	r3, r1, r3
 8000a20:	431a      	orrs	r2, r3
 8000a22:	697b      	ldr	r3, [r7, #20]
 8000a24:	601a      	str	r2, [r3, #0]

      /*--------------------- EXTI Mode Configuration ------------------------*/
      /* Configure the External Interrupt or event for the current IO */
      if ((GPIO_Init->Mode & EXTI_MODE) == EXTI_MODE)
 8000a26:	683b      	ldr	r3, [r7, #0]
 8000a28:	685b      	ldr	r3, [r3, #4]
 8000a2a:	f003 5380 	and.w	r3, r3, #268435456	@ 0x10000000
 8000a2e:	2b00      	cmp	r3, #0
 8000a30:	f000 80b1 	beq.w	8000b96 <HAL_GPIO_Init+0x2e2>
      {
        /* Enable AFIO Clock */
        __HAL_RCC_AFIO_CLK_ENABLE();
 8000a34:	4b4d      	ldr	r3, [pc, #308]	@ (8000b6c <HAL_GPIO_Init+0x2b8>)
 8000a36:	699b      	ldr	r3, [r3, #24]
 8000a38:	4a4c      	ldr	r2, [pc, #304]	@ (8000b6c <HAL_GPIO_Init+0x2b8>)
 8000a3a:	f043 0301 	orr.w	r3, r3, #1
 8000a3e:	6193      	str	r3, [r2, #24]
 8000a40:	4b4a      	ldr	r3, [pc, #296]	@ (8000b6c <HAL_GPIO_Init+0x2b8>)
 8000a42:	699b      	ldr	r3, [r3, #24]
 8000a44:	f003 0301 	and.w	r3, r3, #1
 8000a48:	60bb      	str	r3, [r7, #8]
 8000a4a:	68bb      	ldr	r3, [r7, #8]
        temp = AFIO->EXTICR[position >> 2u];
 8000a4c:	4a48      	ldr	r2, [pc, #288]	@ (8000b70 <HAL_GPIO_Init+0x2bc>)
 8000a4e:	6a7b      	ldr	r3, [r7, #36]	@ 0x24
 8000a50:	089b      	lsrs	r3, r3, #2
 8000a52:	3302      	adds	r3, #2
 8000a54:	f852 3023 	ldr.w	r3, [r2, r3, lsl #2]
 8000a58:	60fb      	str	r3, [r7, #12]
        CLEAR_BIT(temp, (0x0Fu) << (4u * (position & 0x03u)));
 8000a5a:	6a7b      	ldr	r3, [r7, #36]	@ 0x24
 8000a5c:	f003 0303 	and.w	r3, r3, #3
 8000a60:	009b      	lsls	r3, r3, #2
 8000a62:	220f      	movs	r2, #15
 8000a64:	fa02 f303 	lsl.w	r3, r2, r3
 8000a68:	43db      	mvns	r3, r3
 8000a6a:	68fa      	ldr	r2, [r7, #12]
 8000a6c:	4013      	ands	r3, r2
 8000a6e:	60fb      	str	r3, [r7, #12]
        SET_BIT(temp, (GPIO_GET_INDEX(GPIOx)) << (4u * (position & 0x03u)));
 8000a70:	687b      	ldr	r3, [r7, #4]
 8000a72:	4a40      	ldr	r2, [pc, #256]	@ (8000b74 <HAL_GPIO_Init+0x2c0>)
 8000a74:	4293      	cmp	r3, r2
 8000a76:	d013      	beq.n	8000aa0 <HAL_GPIO_Init+0x1ec>
 8000a78:	687b      	ldr	r3, [r7, #4]
 8000a7a:	4a3f      	ldr	r2, [pc, #252]	@ (8000b78 <HAL_GPIO_Init+0x2c4>)
 8000a7c:	4293      	cmp	r3, r2
 8000a7e:	d00d      	beq.n	8000a9c <HAL_GPIO_Init+0x1e8>
 8000a80:	687b      	ldr	r3, [r7, #4]
 8000a82:	4a3e      	ldr	r2, [pc, #248]	@ (8000b7c <HAL_GPIO_Init+0x2c8>)
 8000a84:	4293      	cmp	r3, r2
 8000a86:	d007      	beq.n	8000a98 <HAL_GPIO_Init+0x1e4>
 8000a88:	687b      	ldr	r3, [r7, #4]
 8000a8a:	4a3d      	ldr	r2, [pc, #244]	@ (8000b80 <HAL_GPIO_Init+0x2cc>)
 8000a8c:	4293      	cmp	r3, r2
 8000a8e:	d101      	bne.n	8000a94 <HAL_GPIO_Init+0x1e0>
 8000a90:	2303      	movs	r3, #3
 8000a92:	e006      	b.n	8000aa2 <HAL_GPIO_Init+0x1ee>
 8000a94:	2304      	movs	r3, #4
 8000a96:	e004      	b.n	8000aa2 <HAL_GPIO_Init+0x1ee>
 8000a98:	2302      	movs	r3, #2
 8000a9a:	e002      	b.n	8000aa2 <HAL_GPIO_Init+0x1ee>
 8000a9c:	2301      	movs	r3, #1
 8000a9e:	e000      	b.n	8000aa2 <HAL_GPIO_Init+0x1ee>
 8000aa0:	2300      	movs	r3, #0
 8000aa2:	6a7a      	ldr	r2, [r7, #36]	@ 0x24
 8000aa4:	f002 0203 	and.w	r2, r2, #3
 8000aa8:	0092      	lsls	r2, r2, #2
 8000aaa:	4093      	lsls	r3, r2
 8000aac:	68fa      	ldr	r2, [r7, #12]
 8000aae:	4313      	orrs	r3, r2
 8000ab0:	60fb      	str	r3, [r7, #12]
        AFIO->EXTICR[position >> 2u] = temp;
 8000ab2:	492f      	ldr	r1, [pc, #188]	@ (8000b70 <HAL_GPIO_Init+0x2bc>)
 8000ab4:	6a7b      	ldr	r3, [r7, #36]	@ 0x24
 8000ab6:	089b      	lsrs	r3, r3, #2
 8000ab8:	3302      	adds	r3, #2
 8000aba:	68fa      	ldr	r2, [r7, #12]
 8000abc:	f841 2023 	str.w	r2, [r1, r3, lsl #2]


        /* Enable or disable the rising trigger */
        if ((GPIO_Init->Mode & RISING_EDGE) == RISING_EDGE)
 8000ac0:	683b      	ldr	r3, [r7, #0]
 8000ac2:	685b      	ldr	r3, [r3, #4]
 8000ac4:	f403 1380 	and.w	r3, r3, #1048576	@ 0x100000
 8000ac8:	2b00      	cmp	r3, #0
 8000aca:	d006      	beq.n	8000ada <HAL_GPIO_Init+0x226>
        {
          SET_BIT(EXTI->RTSR, iocurrent);
 8000acc:	4b2d      	ldr	r3, [pc, #180]	@ (8000b84 <HAL_GPIO_Init+0x2d0>)
 8000ace:	689a      	ldr	r2, [r3, #8]
 8000ad0:	492c      	ldr	r1, [pc, #176]	@ (8000b84 <HAL_GPIO_Init+0x2d0>)
 8000ad2:	69bb      	ldr	r3, [r7, #24]
 8000ad4:	4313      	orrs	r3, r2
 8000ad6:	608b      	str	r3, [r1, #8]
 8000ad8:	e006      	b.n	8000ae8 <HAL_GPIO_Init+0x234>
        }
        else
        {
          CLEAR_BIT(EXTI->RTSR, iocurrent);
 8000ada:	4b2a      	ldr	r3, [pc, #168]	@ (8000b84 <HAL_GPIO_Init+0x2d0>)
 8000adc:	689a      	ldr	r2, [r3, #8]
 8000ade:	69bb      	ldr	r3, [r7, #24]
 8000ae0:	43db      	mvns	r3, r3
 8000ae2:	4928      	ldr	r1, [pc, #160]	@ (8000b84 <HAL_GPIO_Init+0x2d0>)
 8000ae4:	4013      	ands	r3, r2
 8000ae6:	608b      	str	r3, [r1, #8]
        }

        /* Enable or disable the falling trigger */
        if ((GPIO_Init->Mode & FALLING_EDGE) == FALLING_EDGE)
 8000ae8:	683b      	ldr	r3, [r7, #0]
 8000aea:	685b      	ldr	r3, [r3, #4]
 8000aec:	f403 1300 	and.w	r3, r3, #2097152	@ 0x200000
 8000af0:	2b00      	cmp	r3, #0
 8000af2:	d006      	beq.n	8000b02 <HAL_GPIO_Init+0x24e>
        {
          SET_BIT(EXTI->FTSR, iocurrent);
 8000af4:	4b23      	ldr	r3, [pc, #140]	@ (8000b84 <HAL_GPIO_Init+0x2d0>)
 8000af6:	68da      	ldr	r2, [r3, #12]
 8000af8:	4922      	ldr	r1, [pc, #136]	@ (8000b84 <HAL_GPIO_Init+0x2d0>)
 8000afa:	69bb      	ldr	r3, [r7, #24]
 8000afc:	4313      	orrs	r3, r2
 8000afe:	60cb      	str	r3, [r1, #12]
 8000b00:	e006      	b.n	8000b10 <HAL_GPIO_Init+0x25c>
        }
        else
        {
          CLEAR_BIT(EXTI->FTSR, iocurrent);
 8000b02:	4b20      	ldr	r3, [pc, #128]	@ (8000b84 <HAL_GPIO_Init+0x2d0>)
 8000b04:	68da      	ldr	r2, [r3, #12]
 8000b06:	69bb      	ldr	r3, [r7, #24]
 8000b08:	43db      	mvns	r3, r3
 8000b0a:	491e      	ldr	r1, [pc, #120]	@ (8000b84 <HAL_GPIO_Init+0x2d0>)
 8000b0c:	4013      	ands	r3, r2
 8000b0e:	60cb      	str	r3, [r1, #12]
        }

        /* Configure the event mask */
        if ((GPIO_Init->Mode & GPIO_MODE_EVT) == GPIO_MODE_EVT)
 8000b10:	683b      	ldr	r3, [r7, #0]
 8000b12:	685b      	ldr	r3, [r3, #4]
 8000b14:	f403 3300 	and.w	r3, r3, #131072	@ 0x20000
 8000b18:	2b00      	cmp	r3, #0
 8000b1a:	d006      	beq.n	8000b2a <HAL_GPIO_Init+0x276>
        {
          SET_BIT(EXTI->EMR, iocurrent);
 8000b1c:	4b19      	ldr	r3, [pc, #100]	@ (8000b84 <HAL_GPIO_Init+0x2d0>)
 8000b1e:	685a      	ldr	r2, [r3, #4]
 8000b20:	4918      	ldr	r1, [pc, #96]	@ (8000b84 <HAL_GPIO_Init+0x2d0>)
 8000b22:	69bb      	ldr	r3, [r7, #24]
 8000b24:	4313      	orrs	r3, r2
 8000b26:	604b      	str	r3, [r1, #4]
 8000b28:	e006      	b.n	8000b38 <HAL_GPIO_Init+0x284>
        }
        else
        {
          CLEAR_BIT(EXTI->EMR, iocurrent);
 8000b2a:	4b16      	ldr	r3, [pc, #88]	@ (8000b84 <HAL_GPIO_Init+0x2d0>)
 8000b2c:	685a      	ldr	r2, [r3, #4]
 8000b2e:	69bb      	ldr	r3, [r7, #24]
 8000b30:	43db      	mvns	r3, r3
 8000b32:	4914      	ldr	r1, [pc, #80]	@ (8000b84 <HAL_GPIO_Init+0x2d0>)
 8000b34:	4013      	ands	r3, r2
 8000b36:	604b      	str	r3, [r1, #4]
        }

        /* Configure the interrupt mask */
        if ((GPIO_Init->Mode & GPIO_MODE_IT) == GPIO_MODE_IT)
 8000b38:	683b      	ldr	r3, [r7, #0]
 8000b3a:	685b      	ldr	r3, [r3, #4]
 8000b3c:	f403 3380 	and.w	r3, r3, #65536	@ 0x10000
 8000b40:	2b00      	cmp	r3, #0
 8000b42:	d021      	beq.n	8000b88 <HAL_GPIO_Init+0x2d4>
        {
          SET_BIT(EXTI->IMR, iocurrent);
 8000b44:	4b0f      	ldr	r3, [pc, #60]	@ (8000b84 <HAL_GPIO_Init+0x2d0>)
 8000b46:	681a      	ldr	r2, [r3, #0]
 8000b48:	490e      	ldr	r1, [pc, #56]	@ (8000b84 <HAL_GPIO_Init+0x2d0>)
 8000b4a:	69bb      	ldr	r3, [r7, #24]
 8000b4c:	4313      	orrs	r3, r2
 8000b4e:	600b      	str	r3, [r1, #0]
 8000b50:	e021      	b.n	8000b96 <HAL_GPIO_Init+0x2e2>
 8000b52:	bf00      	nop
 8000b54:	10320000 	.word	0x10320000
 8000b58:	10310000 	.word	0x10310000
 8000b5c:	10220000 	.word	0x10220000
 8000b60:	10210000 	.word	0x10210000
 8000b64:	10120000 	.word	0x10120000
 8000b68:	10110000 	.word	0x10110000
 8000b6c:	40021000 	.word	0x40021000
 8000b70:	40010000 	.word	0x40010000
 8000b74:	40010800 	.word	0x40010800
 8000b78:	40010c00 	.word	0x40010c00
 8000b7c:	40011000 	.word	0x40011000
 8000b80:	40011400 	.word	0x40011400
 8000b84:	40010400 	.word	0x40010400
        }
        else
        {
          CLEAR_BIT(EXTI->IMR, iocurrent);
 8000b88:	4b0b      	ldr	r3, [pc, #44]	@ (8000bb8 <HAL_GPIO_Init+0x304>)
 8000b8a:	681a      	ldr	r2, [r3, #0]
 8000b8c:	69bb      	ldr	r3, [r7, #24]
 8000b8e:	43db      	mvns	r3, r3
 8000b90:	4909      	ldr	r1, [pc, #36]	@ (8000bb8 <HAL_GPIO_Init+0x304>)
 8000b92:	4013      	ands	r3, r2
 8000b94:	600b      	str	r3, [r1, #0]
        }
      }
    }

	position++;
 8000b96:	6a7b      	ldr	r3, [r7, #36]	@ 0x24
 8000b98:	3301      	adds	r3, #1
 8000b9a:	627b      	str	r3, [r7, #36]	@ 0x24
  while (((GPIO_Init->Pin) >> position) != 0x00u)
 8000b9c:	683b      	ldr	r3, [r7, #0]
 8000b9e:	681a      	ldr	r2, [r3, #0]
 8000ba0:	6a7b      	ldr	r3, [r7, #36]	@ 0x24
 8000ba2:	fa22 f303 	lsr.w	r3, r2, r3
 8000ba6:	2b00      	cmp	r3, #0
 8000ba8:	f47f ae8e 	bne.w	80008c8 <HAL_GPIO_Init+0x14>
  }
}
 8000bac:	bf00      	nop
 8000bae:	bf00      	nop
 8000bb0:	372c      	adds	r7, #44	@ 0x2c
 8000bb2:	46bd      	mov	sp, r7
 8000bb4:	bc80      	pop	{r7}
 8000bb6:	4770      	bx	lr
 8000bb8:	40010400 	.word	0x40010400

08000bbc <HAL_RCC_OscConfig>:
  *         supported by this macro. User should request a transition to HSE Off
  *         first and then HSE On or HSE Bypass.
  * @retval HAL status
  */
HAL_StatusTypeDef HAL_RCC_OscConfig(RCC_OscInitTypeDef  *RCC_OscInitStruct)
{
 8000bbc:	b580      	push	{r7, lr}
 8000bbe:	b086      	sub	sp, #24
 8000bc0:	af00      	add	r7, sp, #0
 8000bc2:	6078      	str	r0, [r7, #4]
  uint32_t tickstart;
  uint32_t pll_config;

  /* Check Null pointer */
  if (RCC_OscInitStruct == NULL)
 8000bc4:	687b      	ldr	r3, [r7, #4]
 8000bc6:	2b00      	cmp	r3, #0
 8000bc8:	d101      	bne.n	8000bce <HAL_RCC_OscConfig+0x12>
  {
    return HAL_ERROR;
 8000bca:	2301      	movs	r3, #1
 8000bcc:	e272      	b.n	80010b4 <HAL_RCC_OscConfig+0x4f8>

  /* Check the parameters */
  assert_param(IS_RCC_OSCILLATORTYPE(RCC_OscInitStruct->OscillatorType));

  /*------------------------------- HSE Configuration ------------------------*/
  if (((RCC_OscInitStruct->OscillatorType) & RCC_OSCILLATORTYPE_HSE) == RCC_OSCILLATORTYPE_HSE)
 8000bce:	687b      	ldr	r3, [r7, #4]
 8000bd0:	681b      	ldr	r3, [r3, #0]
 8000bd2:	f003 0301 	and.w	r3, r3, #1
 8000bd6:	2b00      	cmp	r3, #0
 8000bd8:	f000 8087 	beq.w	8000cea <HAL_RCC_OscConfig+0x12e>
  {
    /* Check the parameters */
    assert_param(IS_RCC_HSE(RCC_OscInitStruct->HSEState));

    /* When the HSE is used as system clock or clock source for PLL in these cases it is not allowed to be disabled */
    if ((__HAL_RCC_GET_SYSCLK_SOURCE() == RCC_SYSCLKSOURCE_STATUS_HSE)
 8000bdc:	4b92      	ldr	r3, [pc, #584]	@ (8000e28 <HAL_RCC_OscConfig+0x26c>)
 8000bde:	685b      	ldr	r3, [r3, #4]
 8000be0:	f003 030c 	and.w	r3, r3, #12
 8000be4:	2b04      	cmp	r3, #4
 8000be6:	d00c      	beq.n	8000c02 <HAL_RCC_OscConfig+0x46>
        || ((__HAL_RCC_GET_SYSCLK_SOURCE() == RCC_SYSCLKSOURCE_STATUS_PLLCLK) && (__HAL_RCC_GET_PLL_OSCSOURCE() == RCC_PLLSOURCE_HSE)))
 8000be8:	4b8f      	ldr	r3, [pc, #572]	@ (8000e28 <HAL_RCC_OscConfig+0x26c>)
 8000bea:	685b      	ldr	r3, [r3, #4]
 8000bec:	f003 030c 	and.w	r3, r3, #12
 8000bf0:	2b08      	cmp	r3, #8
 8000bf2:	d112      	bne.n	8000c1a <HAL_RCC_OscConfig+0x5e>
 8000bf4:	4b8c      	ldr	r3, [pc, #560]	@ (8000e28 <HAL_RCC_OscConfig+0x26c>)
 8000bf6:	685b      	ldr	r3, [r3, #4]
 8000bf8:	f403 3380 	and.w	r3, r3, #65536	@ 0x10000
 8000bfc:	f5b3 3f80 	cmp.w	r3, #65536	@ 0x10000
 8000c00:	d10b      	bne.n	8000c1a <HAL_RCC_OscConfig+0x5e>
    {
      if ((__HAL_RCC_GET_FLAG(RCC_FLAG_HSERDY) != RESET) && (RCC_OscInitStruct->HSEState == RCC_HSE_OFF))
 8000c02:	4b89      	ldr	r3, [pc, #548]	@ (8000e28 <HAL_RCC_OscConfig+0x26c>)
 8000c04:	681b      	ldr	r3, [r3, #0]
 8000c06:	f403 3300 	and.w	r3, r3, #131072	@ 0x20000
 8000c0a:	2b00      	cmp	r3, #0
 8000c0c:	d06c      	beq.n	8000ce8 <HAL_RCC_OscConfig+0x12c>
 8000c0e:	687b      	ldr	r3, [r7, #4]
 8000c10:	685b      	ldr	r3, [r3, #4]
 8000c12:	2b00      	cmp	r3, #0
 8000c14:	d168      	bne.n	8000ce8 <HAL_RCC_OscConfig+0x12c>
      {
        return HAL_ERROR;
 8000c16:	2301      	movs	r3, #1
 8000c18:	e24c      	b.n	80010b4 <HAL_RCC_OscConfig+0x4f8>
      }
    }
    else
    {
      /* Set the new HSE configuration ---------------------------------------*/
      __HAL_RCC_HSE_CONFIG(RCC_OscInitStruct->HSEState);
 8000c1a:	687b      	ldr	r3, [r7, #4]
 8000c1c:	685b      	ldr	r3, [r3, #4]
 8000c1e:	f5b3 3f80 	cmp.w	r3, #65536	@ 0x10000
 8000c22:	d106      	bne.n	8000c32 <HAL_RCC_OscConfig+0x76>
 8000c24:	4b80      	ldr	r3, [pc, #512]	@ (8000e28 <HAL_RCC_OscConfig+0x26c>)
 8000c26:	681b      	ldr	r3, [r3, #0]
 8000c28:	4a7f      	ldr	r2, [pc, #508]	@ (8000e28 <HAL_RCC_OscConfig+0x26c>)
 8000c2a:	f443 3380 	orr.w	r3, r3, #65536	@ 0x10000
 8000c2e:	6013      	str	r3, [r2, #0]
 8000c30:	e02e      	b.n	8000c90 <HAL_RCC_OscConfig+0xd4>
 8000c32:	687b      	ldr	r3, [r7, #4]
 8000c34:	685b      	ldr	r3, [r3, #4]
 8000c36:	2b00      	cmp	r3, #0
 8000c38:	d10c      	bne.n	8000c54 <HAL_RCC_OscConfig+0x98>
 8000c3a:	4b7b      	ldr	r3, [pc, #492]	@ (8000e28 <HAL_RCC_OscConfig+0x26c>)
 8000c3c:	681b      	ldr	r3, [r3, #0]
 8000c3e:	4a7a      	ldr	r2, [pc, #488]	@ (8000e28 <HAL_RCC_OscConfig+0x26c>)
 8000c40:	f423 3380 	bic.w	r3, r3, #65536	@ 0x10000
 8000c44:	6013      	str	r3, [r2, #0]
 8000c46:	4b78      	ldr	r3, [pc, #480]	@ (8000e28 <HAL_RCC_OscConfig+0x26c>)
 8000c48:	681b      	ldr	r3, [r3, #0]
 8000c4a:	4a77      	ldr	r2, [pc, #476]	@ (8000e28 <HAL_RCC_OscConfig+0x26c>)
 8000c4c:	f423 2380 	bic.w	r3, r3, #262144	@ 0x40000
 8000c50:	6013      	str	r3, [r2, #0]
 8000c52:	e01d      	b.n	8000c90 <HAL_RCC_OscConfig+0xd4>
 8000c54:	687b      	ldr	r3, [r7, #4]
 8000c56:	685b      	ldr	r3, [r3, #4]
 8000c58:	f5b3 2fa0 	cmp.w	r3, #327680	@ 0x50000
 8000c5c:	d10c      	bne.n	8000c78 <HAL_RCC_OscConfig+0xbc>
 8000c5e:	4b72      	ldr	r3, [pc, #456]	@ (8000e28 <HAL_RCC_OscConfig+0x26c>)
 8000c60:	681b      	ldr	r3, [r3, #0]
 8000c62:	4a71      	ldr	r2, [pc, #452]	@ (8000e28 <HAL_RCC_OscConfig+0x26c>)
 8000c64:	f443 2380 	orr.w	r3, r3, #262144	@ 0x40000
 8000c68:	6013      	str	r3, [r2, #0]
 8000c6a:	4b6f      	ldr	r3, [pc, #444]	@ (8000e28 <HAL_RCC_OscConfig+0x26c>)
 8000c6c:	681b      	ldr	r3, [r3, #0]
 8000c6e:	4a6e      	ldr	r2, [pc, #440]	@ (8000e28 <HAL_RCC_OscConfig+0x26c>)
 8000c70:	f443 3380 	orr.w	r3, r3, #65536	@ 0x10000
 8000c74:	6013      	str	r3, [r2, #0]
 8000c76:	e00b      	b.n	8000c90 <HAL_RCC_OscConfig+0xd4>
 8000c78:	4b6b      	ldr	r3, [pc, #428]	@ (8000e28 <HAL_RCC_OscConfig+0x26c>)
 8000c7a:	681b      	ldr	r3, [r3, #0]
 8000c7c:	4a6a      	ldr	r2, [pc, #424]	@ (8000e28 <HAL_RCC_OscConfig+0x26c>)
 8000c7e:	f423 3380 	bic.w	r3, r3, #65536	@ 0x10000
 8000c82:	6013      	str	r3, [r2, #0]
 8000c84:	4b68      	ldr	r3, [pc, #416]	@ (8000e28 <HAL_RCC_OscConfig+0x26c>)
 8000c86:	681b      	ldr	r3, [r3, #0]
 8000c88:	4a67      	ldr	r2, [pc, #412]	@ (8000e28 <HAL_RCC_OscConfig+0x26c>)
 8000c8a:	f423 2380 	bic.w	r3, r3, #262144	@ 0x40000
 8000c8e:	6013      	str	r3, [r2, #0]


      /* Check the HSE State */
      if (RCC_OscInitStruct->HSEState != RCC_HSE_OFF)
 8000c90:	687b      	ldr	r3, [r7, #4]
 8000c92:	685b      	ldr	r3, [r3, #4]
 8000c94:	2b00      	cmp	r3, #0
 8000c96:	d013      	beq.n	8000cc0 <HAL_RCC_OscConfig+0x104>
      {
        /* Get Start Tick */
        tickstart = HAL_GetTick();
 8000c98:	f7ff fcfa 	bl	8000690 <HAL_GetTick>
 8000c9c:	6138      	str	r0, [r7, #16]

        /* Wait till HSE is ready */
        while (__HAL_RCC_GET_FLAG(RCC_FLAG_HSERDY) == RESET)
 8000c9e:	e008      	b.n	8000cb2 <HAL_RCC_OscConfig+0xf6>
        {
          if ((HAL_GetTick() - tickstart) > HSE_TIMEOUT_VALUE)
 8000ca0:	f7ff fcf6 	bl	8000690 <HAL_GetTick>
 8000ca4:	4602      	mov	r2, r0
 8000ca6:	693b      	ldr	r3, [r7, #16]
 8000ca8:	1ad3      	subs	r3, r2, r3
 8000caa:	2b64      	cmp	r3, #100	@ 0x64
 8000cac:	d901      	bls.n	8000cb2 <HAL_RCC_OscConfig+0xf6>
          {
            return HAL_TIMEOUT;
 8000cae:	2303      	movs	r3, #3
 8000cb0:	e200      	b.n	80010b4 <HAL_RCC_OscConfig+0x4f8>
        while (__HAL_RCC_GET_FLAG(RCC_FLAG_HSERDY) == RESET)
 8000cb2:	4b5d      	ldr	r3, [pc, #372]	@ (8000e28 <HAL_RCC_OscConfig+0x26c>)
 8000cb4:	681b      	ldr	r3, [r3, #0]
 8000cb6:	f403 3300 	and.w	r3, r3, #131072	@ 0x20000
 8000cba:	2b00      	cmp	r3, #0
 8000cbc:	d0f0      	beq.n	8000ca0 <HAL_RCC_OscConfig+0xe4>
 8000cbe:	e014      	b.n	8000cea <HAL_RCC_OscConfig+0x12e>
        }
      }
      else
      {
        /* Get Start Tick */
        tickstart = HAL_GetTick();
 8000cc0:	f7ff fce6 	bl	8000690 <HAL_GetTick>
 8000cc4:	6138      	str	r0, [r7, #16]

        /* Wait till HSE is disabled */
        while (__HAL_RCC_GET_FLAG(RCC_FLAG_HSERDY) != RESET)
 8000cc6:	e008      	b.n	8000cda <HAL_RCC_OscConfig+0x11e>
        {
          if ((HAL_GetTick() - tickstart) > HSE_TIMEOUT_VALUE)
 8000cc8:	f7ff fce2 	bl	8000690 <HAL_GetTick>
 8000ccc:	4602      	mov	r2, r0
 8000cce:	693b      	ldr	r3, [r7, #16]
 8000cd0:	1ad3      	subs	r3, r2, r3
 8000cd2:	2b64      	cmp	r3, #100	@ 0x64
 8000cd4:	d901      	bls.n	8000cda <HAL_RCC_OscConfig+0x11e>
          {
            return HAL_TIMEOUT;
 8000cd6:	2303      	movs	r3, #3
 8000cd8:	e1ec      	b.n	80010b4 <HAL_RCC_OscConfig+0x4f8>
        while (__HAL_RCC_GET_FLAG(RCC_FLAG_HSERDY) != RESET)
 8000cda:	4b53      	ldr	r3, [pc, #332]	@ (8000e28 <HAL_RCC_OscConfig+0x26c>)
 8000cdc:	681b      	ldr	r3, [r3, #0]
 8000cde:	f403 3300 	and.w	r3, r3, #131072	@ 0x20000
 8000ce2:	2b00      	cmp	r3, #0
 8000ce4:	d1f0      	bne.n	8000cc8 <HAL_RCC_OscConfig+0x10c>
 8000ce6:	e000      	b.n	8000cea <HAL_RCC_OscConfig+0x12e>
      if ((__HAL_RCC_GET_FLAG(RCC_FLAG_HSERDY) != RESET) && (RCC_OscInitStruct->HSEState == RCC_HSE_OFF))
 8000ce8:	bf00      	nop
        }
      }
    }
  }
  /*----------------------------- HSI Configuration --------------------------*/
  if (((RCC_OscInitStruct->OscillatorType) & RCC_OSCILLATORTYPE_HSI) == RCC_OSCILLATORTYPE_HSI)
 8000cea:	687b      	ldr	r3, [r7, #4]
 8000cec:	681b      	ldr	r3, [r3, #0]
 8000cee:	f003 0302 	and.w	r3, r3, #2
 8000cf2:	2b00      	cmp	r3, #0
 8000cf4:	d063      	beq.n	8000dbe <HAL_RCC_OscConfig+0x202>
    /* Check the parameters */
    assert_param(IS_RCC_HSI(RCC_OscInitStruct->HSIState));
    assert_param(IS_RCC_CALIBRATION_VALUE(RCC_OscInitStruct->HSICalibrationValue));

    /* Check if HSI is used as system clock or as PLL source when PLL is selected as system clock */
    if ((__HAL_RCC_GET_SYSCLK_SOURCE() == RCC_SYSCLKSOURCE_STATUS_HSI)
 8000cf6:	4b4c      	ldr	r3, [pc, #304]	@ (8000e28 <HAL_RCC_OscConfig+0x26c>)
 8000cf8:	685b      	ldr	r3, [r3, #4]
 8000cfa:	f003 030c 	and.w	r3, r3, #12
 8000cfe:	2b00      	cmp	r3, #0
 8000d00:	d00b      	beq.n	8000d1a <HAL_RCC_OscConfig+0x15e>
        || ((__HAL_RCC_GET_SYSCLK_SOURCE() == RCC_SYSCLKSOURCE_STATUS_PLLCLK) && (__HAL_RCC_GET_PLL_OSCSOURCE() == RCC_PLLSOURCE_HSI_DIV2)))
 8000d02:	4b49      	ldr	r3, [pc, #292]	@ (8000e28 <HAL_RCC_OscConfig+0x26c>)
 8000d04:	685b      	ldr	r3, [r3, #4]
 8000d06:	f003 030c 	and.w	r3, r3, #12
 8000d0a:	2b08      	cmp	r3, #8
 8000d0c:	d11c      	bne.n	8000d48 <HAL_RCC_OscConfig+0x18c>
 8000d0e:	4b46      	ldr	r3, [pc, #280]	@ (8000e28 <HAL_RCC_OscConfig+0x26c>)
 8000d10:	685b      	ldr	r3, [r3, #4]
 8000d12:	f403 3380 	and.w	r3, r3, #65536	@ 0x10000
 8000d16:	2b00      	cmp	r3, #0
 8000d18:	d116      	bne.n	8000d48 <HAL_RCC_OscConfig+0x18c>
    {
      /* When HSI is used as system clock it will not disabled */
      if ((__HAL_RCC_GET_FLAG(RCC_FLAG_HSIRDY) != RESET) && (RCC_OscInitStruct->HSIState != RCC_HSI_ON))
 8000d1a:	4b43      	ldr	r3, [pc, #268]	@ (8000e28 <HAL_RCC_OscConfig+0x26c>)
 8000d1c:	681b      	ldr	r3, [r3, #0]
 8000d1e:	f003 0302 	and.w	r3, r3, #2
 8000d22:	2b00      	cmp	r3, #0
 8000d24:	d005      	beq.n	8000d32 <HAL_RCC_OscConfig+0x176>
 8000d26:	687b      	ldr	r3, [r7, #4]
 8000d28:	691b      	ldr	r3, [r3, #16]
 8000d2a:	2b01      	cmp	r3, #1
 8000d2c:	d001      	beq.n	8000d32 <HAL_RCC_OscConfig+0x176>
      {
        return HAL_ERROR;
 8000d2e:	2301      	movs	r3, #1
 8000d30:	e1c0      	b.n	80010b4 <HAL_RCC_OscConfig+0x4f8>
      }
      /* Otherwise, just the calibration is allowed */
      else
      {
        /* Adjusts the Internal High Speed oscillator (HSI) calibration value.*/
        __HAL_RCC_HSI_CALIBRATIONVALUE_ADJUST(RCC_OscInitStruct->HSICalibrationValue);
 8000d32:	4b3d      	ldr	r3, [pc, #244]	@ (8000e28 <HAL_RCC_OscConfig+0x26c>)
 8000d34:	681b      	ldr	r3, [r3, #0]
 8000d36:	f023 02f8 	bic.w	r2, r3, #248	@ 0xf8
 8000d3a:	687b      	ldr	r3, [r7, #4]
 8000d3c:	695b      	ldr	r3, [r3, #20]
 8000d3e:	00db      	lsls	r3, r3, #3
 8000d40:	4939      	ldr	r1, [pc, #228]	@ (8000e28 <HAL_RCC_OscConfig+0x26c>)
 8000d42:	4313      	orrs	r3, r2
 8000d44:	600b      	str	r3, [r1, #0]
      if ((__HAL_RCC_GET_FLAG(RCC_FLAG_HSIRDY) != RESET) && (RCC_OscInitStruct->HSIState != RCC_HSI_ON))
 8000d46:	e03a      	b.n	8000dbe <HAL_RCC_OscConfig+0x202>
      }
    }
    else
    {
      /* Check the HSI State */
      if (RCC_OscInitStruct->HSIState != RCC_HSI_OFF)
 8000d48:	687b      	ldr	r3, [r7, #4]
 8000d4a:	691b      	ldr	r3, [r3, #16]
 8000d4c:	2b00      	cmp	r3, #0
 8000d4e:	d020      	beq.n	8000d92 <HAL_RCC_OscConfig+0x1d6>
      {
        /* Enable the Internal High Speed oscillator (HSI). */
        __HAL_RCC_HSI_ENABLE();
 8000d50:	4b36      	ldr	r3, [pc, #216]	@ (8000e2c <HAL_RCC_OscConfig+0x270>)
 8000d52:	2201      	movs	r2, #1
 8000d54:	601a      	str	r2, [r3, #0]

        /* Get Start Tick */
        tickstart = HAL_GetTick();
 8000d56:	f7ff fc9b 	bl	8000690 <HAL_GetTick>
 8000d5a:	6138      	str	r0, [r7, #16]

        /* Wait till HSI is ready */
        while (__HAL_RCC_GET_FLAG(RCC_FLAG_HSIRDY) == RESET)
 8000d5c:	e008      	b.n	8000d70 <HAL_RCC_OscConfig+0x1b4>
        {
          if ((HAL_GetTick() - tickstart) > HSI_TIMEOUT_VALUE)
 8000d5e:	f7ff fc97 	bl	8000690 <HAL_GetTick>
 8000d62:	4602      	mov	r2, r0
 8000d64:	693b      	ldr	r3, [r7, #16]
 8000d66:	1ad3      	subs	r3, r2, r3
 8000d68:	2b02      	cmp	r3, #2
 8000d6a:	d901      	bls.n	8000d70 <HAL_RCC_OscConfig+0x1b4>
          {
            return HAL_TIMEOUT;
 8000d6c:	2303      	movs	r3, #3
 8000d6e:	e1a1      	b.n	80010b4 <HAL_RCC_OscConfig+0x4f8>
        while (__HAL_RCC_GET_FLAG(RCC_FLAG_HSIRDY) == RESET)
 8000d70:	4b2d      	ldr	r3, [pc, #180]	@ (8000e28 <HAL_RCC_OscConfig+0x26c>)
 8000d72:	681b      	ldr	r3, [r3, #0]
 8000d74:	f003 0302 	and.w	r3, r3, #2
 8000d78:	2b00      	cmp	r3, #0
 8000d7a:	d0f0      	beq.n	8000d5e <HAL_RCC_OscConfig+0x1a2>
          }
        }

        /* Adjusts the Internal High Speed oscillator (HSI) calibration value.*/
        __HAL_RCC_HSI_CALIBRATIONVALUE_ADJUST(RCC_OscInitStruct->HSICalibrationValue);
 8000d7c:	4b2a      	ldr	r3, [pc, #168]	@ (8000e28 <HAL_RCC_OscConfig+0x26c>)
 8000d7e:	681b      	ldr	r3, [r3, #0]
 8000d80:	f023 02f8 	bic.w	r2, r3, #248	@ 0xf8
 8000d84:	687b      	ldr	r3, [r7, #4]
 8000d86:	695b      	ldr	r3, [r3, #20]
 8000d88:	00db      	lsls	r3, r3, #3
 8000d8a:	4927      	ldr	r1, [pc, #156]	@ (8000e28 <HAL_RCC_OscConfig+0x26c>)
 8000d8c:	4313      	orrs	r3, r2
 8000d8e:	600b      	str	r3, [r1, #0]
 8000d90:	e015      	b.n	8000dbe <HAL_RCC_OscConfig+0x202>
      }
      else
      {
        /* Disable the Internal High Speed oscillator (HSI). */
        __HAL_RCC_HSI_DISABLE();
 8000d92:	4b26      	ldr	r3, [pc, #152]	@ (8000e2c <HAL_RCC_OscConfig+0x270>)
 8000d94:	2200      	movs	r2, #0
 8000d96:	601a      	str	r2, [r3, #0]

        /* Get Start Tick */
        tickstart = HAL_GetTick();
 8000d98:	f7ff fc7a 	bl	8000690 <HAL_GetTick>
 8000d9c:	6138      	str	r0, [r7, #16]

        /* Wait till HSI is disabled */
        while (__HAL_RCC_GET_FLAG(RCC_FLAG_HSIRDY) != RESET)
 8000d9e:	e008      	b.n	8000db2 <HAL_RCC_OscConfig+0x1f6>
        {
          if ((HAL_GetTick() - tickstart) > HSI_TIMEOUT_VALUE)
 8000da0:	f7ff fc76 	bl	8000690 <HAL_GetTick>
 8000da4:	4602      	mov	r2, r0
 8000da6:	693b      	ldr	r3, [r7, #16]
 8000da8:	1ad3      	subs	r3, r2, r3
 8000daa:	2b02      	cmp	r3, #2
 8000dac:	d901      	bls.n	8000db2 <HAL_RCC_OscConfig+0x1f6>
          {
            return HAL_TIMEOUT;
 8000dae:	2303      	movs	r3, #3
 8000db0:	e180      	b.n	80010b4 <HAL_RCC_OscConfig+0x4f8>
        while (__HAL_RCC_GET_FLAG(RCC_FLAG_HSIRDY) != RESET)
 8000db2:	4b1d      	ldr	r3, [pc, #116]	@ (8000e28 <HAL_RCC_OscConfig+0x26c>)
 8000db4:	681b      	ldr	r3, [r3, #0]
 8000db6:	f003 0302 	and.w	r3, r3, #2
 8000dba:	2b00      	cmp	r3, #0
 8000dbc:	d1f0      	bne.n	8000da0 <HAL_RCC_OscConfig+0x1e4>
        }
      }
    }
  }
  /*------------------------------ LSI Configuration -------------------------*/
  if (((RCC_OscInitStruct->OscillatorType) & RCC_OSCILLATORTYPE_LSI) == RCC_OSCILLATORTYPE_LSI)
 8000dbe:	687b      	ldr	r3, [r7, #4]
 8000dc0:	681b      	ldr	r3, [r3, #0]
 8000dc2:	f003 0308 	and.w	r3, r3, #8
 8000dc6:	2b00      	cmp	r3, #0
 8000dc8:	d03a      	beq.n	8000e40 <HAL_RCC_OscConfig+0x284>
  {
    /* Check the parameters */
    assert_param(IS_RCC_LSI(RCC_OscInitStruct->LSIState));

    /* Check the LSI State */
    if (RCC_OscInitStruct->LSIState != RCC_LSI_OFF)
 8000dca:	687b      	ldr	r3, [r7, #4]
 8000dcc:	699b      	ldr	r3, [r3, #24]
 8000dce:	2b00      	cmp	r3, #0
 8000dd0:	d019      	beq.n	8000e06 <HAL_RCC_OscConfig+0x24a>
    {
      /* Enable the Internal Low Speed oscillator (LSI). */
      __HAL_RCC_LSI_ENABLE();
 8000dd2:	4b17      	ldr	r3, [pc, #92]	@ (8000e30 <HAL_RCC_OscConfig+0x274>)
 8000dd4:	2201      	movs	r2, #1
 8000dd6:	601a      	str	r2, [r3, #0]

      /* Get Start Tick */
      tickstart = HAL_GetTick();
 8000dd8:	f7ff fc5a 	bl	8000690 <HAL_GetTick>
 8000ddc:	6138      	str	r0, [r7, #16]

      /* Wait till LSI is ready */
      while (__HAL_RCC_GET_FLAG(RCC_FLAG_LSIRDY) == RESET)
 8000dde:	e008      	b.n	8000df2 <HAL_RCC_OscConfig+0x236>
      {
        if ((HAL_GetTick() - tickstart) > LSI_TIMEOUT_VALUE)
 8000de0:	f7ff fc56 	bl	8000690 <HAL_GetTick>
 8000de4:	4602      	mov	r2, r0
 8000de6:	693b      	ldr	r3, [r7, #16]
 8000de8:	1ad3      	subs	r3, r2, r3
 8000dea:	2b02      	cmp	r3, #2
 8000dec:	d901      	bls.n	8000df2 <HAL_RCC_OscConfig+0x236>
        {
          return HAL_TIMEOUT;
 8000dee:	2303      	movs	r3, #3
 8000df0:	e160      	b.n	80010b4 <HAL_RCC_OscConfig+0x4f8>
      while (__HAL_RCC_GET_FLAG(RCC_FLAG_LSIRDY) == RESET)
 8000df2:	4b0d      	ldr	r3, [pc, #52]	@ (8000e28 <HAL_RCC_OscConfig+0x26c>)
 8000df4:	6a5b      	ldr	r3, [r3, #36]	@ 0x24
 8000df6:	f003 0302 	and.w	r3, r3, #2
 8000dfa:	2b00      	cmp	r3, #0
 8000dfc:	d0f0      	beq.n	8000de0 <HAL_RCC_OscConfig+0x224>
        }
      }
      /*  To have a fully stabilized clock in the specified range, a software delay of 1ms
          should be added.*/
      RCC_Delay(1);
 8000dfe:	2001      	movs	r0, #1
 8000e00:	f000 fa9c 	bl	800133c <RCC_Delay>
 8000e04:	e01c      	b.n	8000e40 <HAL_RCC_OscConfig+0x284>
    }
    else
    {
      /* Disable the Internal Low Speed oscillator (LSI). */
      __HAL_RCC_LSI_DISABLE();
 8000e06:	4b0a      	ldr	r3, [pc, #40]	@ (8000e30 <HAL_RCC_OscConfig+0x274>)
 8000e08:	2200      	movs	r2, #0
 8000e0a:	601a      	str	r2, [r3, #0]

      /* Get Start Tick */
      tickstart = HAL_GetTick();
 8000e0c:	f7ff fc40 	bl	8000690 <HAL_GetTick>
 8000e10:	6138      	str	r0, [r7, #16]

      /* Wait till LSI is disabled */
      while (__HAL_RCC_GET_FLAG(RCC_FLAG_LSIRDY) != RESET)
 8000e12:	e00f      	b.n	8000e34 <HAL_RCC_OscConfig+0x278>
      {
        if ((HAL_GetTick() - tickstart) > LSI_TIMEOUT_VALUE)
 8000e14:	f7ff fc3c 	bl	8000690 <HAL_GetTick>
 8000e18:	4602      	mov	r2, r0
 8000e1a:	693b      	ldr	r3, [r7, #16]
 8000e1c:	1ad3      	subs	r3, r2, r3
 8000e1e:	2b02      	cmp	r3, #2
 8000e20:	d908      	bls.n	8000e34 <HAL_RCC_OscConfig+0x278>
        {
          return HAL_TIMEOUT;
 8000e22:	2303      	movs	r3, #3
 8000e24:	e146      	b.n	80010b4 <HAL_RCC_OscConfig+0x4f8>
 8000e26:	bf00      	nop
 8000e28:	40021000 	.word	0x40021000
 8000e2c:	42420000 	.word	0x42420000
 8000e30:	42420480 	.word	0x42420480
      while (__HAL_RCC_GET_FLAG(RCC_FLAG_LSIRDY) != RESET)
 8000e34:	4b92      	ldr	r3, [pc, #584]	@ (8001080 <HAL_RCC_OscConfig+0x4c4>)
 8000e36:	6a5b      	ldr	r3, [r3, #36]	@ 0x24
 8000e38:	f003 0302 	and.w	r3, r3, #2
 8000e3c:	2b00      	cmp	r3, #0
 8000e3e:	d1e9      	bne.n	8000e14 <HAL_RCC_OscConfig+0x258>
        }
      }
    }
  }
  /*------------------------------ LSE Configuration -------------------------*/
  if (((RCC_OscInitStruct->OscillatorType) & RCC_OSCILLATORTYPE_LSE) == RCC_OSCILLATORTYPE_LSE)
 8000e40:	687b      	ldr	r3, [r7, #4]
 8000e42:	681b      	ldr	r3, [r3, #0]
 8000e44:	f003 0304 	and.w	r3, r3, #4
 8000e48:	2b00      	cmp	r3, #0
 8000e4a:	f000 80a6 	beq.w	8000f9a <HAL_RCC_OscConfig+0x3de>
  {
    FlagStatus       pwrclkchanged = RESET;
 8000e4e:	2300      	movs	r3, #0
 8000e50:	75fb      	strb	r3, [r7, #23]
    /* Check the parameters */
    assert_param(IS_RCC_LSE(RCC_OscInitStruct->LSEState));

    /* Update LSE configuration in Backup Domain control register    */
    /* Requires to enable write access to Backup Domain of necessary */
    if (__HAL_RCC_PWR_IS_CLK_DISABLED())
 8000e52:	4b8b      	ldr	r3, [pc, #556]	@ (8001080 <HAL_RCC_OscConfig+0x4c4>)
 8000e54:	69db      	ldr	r3, [r3, #28]
 8000e56:	f003 5380 	and.w	r3, r3, #268435456	@ 0x10000000
 8000e5a:	2b00      	cmp	r3, #0
 8000e5c:	d10d      	bne.n	8000e7a <HAL_RCC_OscConfig+0x2be>
    {
      __HAL_RCC_PWR_CLK_ENABLE();
 8000e5e:	4b88      	ldr	r3, [pc, #544]	@ (8001080 <HAL_RCC_OscConfig+0x4c4>)
 8000e60:	69db      	ldr	r3, [r3, #28]
 8000e62:	4a87      	ldr	r2, [pc, #540]	@ (8001080 <HAL_RCC_OscConfig+0x4c4>)
 8000e64:	f043 5380 	orr.w	r3, r3, #268435456	@ 0x10000000
 8000e68:	61d3      	str	r3, [r2, #28]
 8000e6a:	4b85      	ldr	r3, [pc, #532]	@ (8001080 <HAL_RCC_OscConfig+0x4c4>)
 8000e6c:	69db      	ldr	r3, [r3, #28]
 8000e6e:	f003 5380 	and.w	r3, r3, #268435456	@ 0x10000000
 8000e72:	60bb      	str	r3, [r7, #8]
 8000e74:	68bb      	ldr	r3, [r7, #8]
      pwrclkchanged = SET;
 8000e76:	2301      	movs	r3, #1
 8000e78:	75fb      	strb	r3, [r7, #23]
    }

    if (HAL_IS_BIT_CLR(PWR->CR, PWR_CR_DBP))
 8000e7a:	4b82      	ldr	r3, [pc, #520]	@ (8001084 <HAL_RCC_OscConfig+0x4c8>)
 8000e7c:	681b      	ldr	r3, [r3, #0]
 8000e7e:	f403 7380 	and.w	r3, r3, #256	@ 0x100
 8000e82:	2b00      	cmp	r3, #0
 8000e84:	d118      	bne.n	8000eb8 <HAL_RCC_OscConfig+0x2fc>
    {
      /* Enable write access to Backup domain */
      SET_BIT(PWR->CR, PWR_CR_DBP);
 8000e86:	4b7f      	ldr	r3, [pc, #508]	@ (8001084 <HAL_RCC_OscConfig+0x4c8>)
 8000e88:	681b      	ldr	r3, [r3, #0]
 8000e8a:	4a7e      	ldr	r2, [pc, #504]	@ (8001084 <HAL_RCC_OscConfig+0x4c8>)
 8000e8c:	f443 7380 	orr.w	r3, r3, #256	@ 0x100
 8000e90:	6013      	str	r3, [r2, #0]

      /* Wait for Backup domain Write protection disable */
      tickstart = HAL_GetTick();
 8000e92:	f7ff fbfd 	bl	8000690 <HAL_GetTick>
 8000e96:	6138      	str	r0, [r7, #16]

      while (HAL_IS_BIT_CLR(PWR->CR, PWR_CR_DBP))
 8000e98:	e008      	b.n	8000eac <HAL_RCC_OscConfig+0x2f0>
      {
        if ((HAL_GetTick() - tickstart) > RCC_DBP_TIMEOUT_VALUE)
 8000e9a:	f7ff fbf9 	bl	8000690 <HAL_GetTick>
 8000e9e:	4602      	mov	r2, r0
 8000ea0:	693b      	ldr	r3, [r7, #16]
 8000ea2:	1ad3      	subs	r3, r2, r3
 8000ea4:	2b64      	cmp	r3, #100	@ 0x64
 8000ea6:	d901      	bls.n	8000eac <HAL_RCC_OscConfig+0x2f0>
        {
          return HAL_TIMEOUT;
 8000ea8:	2303      	movs	r3, #3
 8000eaa:	e103      	b.n	80010b4 <HAL_RCC_OscConfig+0x4f8>
      while (HAL_IS_BIT_CLR(PWR->CR, PWR_CR_DBP))
 8000eac:	4b75      	ldr	r3, [pc, #468]	@ (8001084 <HAL_RCC_OscConfig+0x4c8>)
 8000eae:	681b      	ldr	r3, [r3, #0]
 8000eb0:	f403 7380 	and.w	r3, r3, #256	@ 0x100
 8000eb4:	2b00      	cmp	r3, #0
 8000eb6:	d0f0      	beq.n	8000e9a <HAL_RCC_OscConfig+0x2de>
        }
      }
    }

    /* Set the new LSE configuration -----------------------------------------*/
    __HAL_RCC_LSE_CONFIG(RCC_OscInitStruct->LSEState);
 8000eb8:	687b      	ldr	r3, [r7, #4]
 8000eba:	68db      	ldr	r3, [r3, #12]
 8000ebc:	2b01      	cmp	r3, #1
 8000ebe:	d106      	bne.n	8000ece <HAL_RCC_OscConfig+0x312>
 8000ec0:	4b6f      	ldr	r3, [pc, #444]	@ (8001080 <HAL_RCC_OscConfig+0x4c4>)
 8000ec2:	6a1b      	ldr	r3, [r3, #32]
 8000ec4:	4a6e      	ldr	r2, [pc, #440]	@ (8001080 <HAL_RCC_OscConfig+0x4c4>)
 8000ec6:	f043 0301 	orr.w	r3, r3, #1
 8000eca:	6213      	str	r3, [r2, #32]
 8000ecc:	e02d      	b.n	8000f2a <HAL_RCC_OscConfig+0x36e>
 8000ece:	687b      	ldr	r3, [r7, #4]
 8000ed0:	68db      	ldr	r3, [r3, #12]
 8000ed2:	2b00      	cmp	r3, #0
 8000ed4:	d10c      	bne.n	8000ef0 <HAL_RCC_OscConfig+0x334>
 8000ed6:	4b6a      	ldr	r3, [pc, #424]	@ (8001080 <HAL_RCC_OscConfig+0x4c4>)
 8000ed8:	6a1b      	ldr	r3, [r3, #32]
 8000eda:	4a69      	ldr	r2, [pc, #420]	@ (8001080 <HAL_RCC_OscConfig+0x4c4>)
 8000edc:	f023 0301 	bic.w	r3, r3, #1
 8000ee0:	6213      	str	r3, [r2, #32]
 8000ee2:	4b67      	ldr	r3, [pc, #412]	@ (8001080 <HAL_RCC_OscConfig+0x4c4>)
 8000ee4:	6a1b      	ldr	r3, [r3, #32]
 8000ee6:	4a66      	ldr	r2, [pc, #408]	@ (8001080 <HAL_RCC_OscConfig+0x4c4>)
 8000ee8:	f023 0304 	bic.w	r3, r3, #4
 8000eec:	6213      	str	r3, [r2, #32]
 8000eee:	e01c      	b.n	8000f2a <HAL_RCC_OscConfig+0x36e>
 8000ef0:	687b      	ldr	r3, [r7, #4]
 8000ef2:	68db      	ldr	r3, [r3, #12]
 8000ef4:	2b05      	cmp	r3, #5
 8000ef6:	d10c      	bne.n	8000f12 <HAL_RCC_OscConfig+0x356>
 8000ef8:	4b61      	ldr	r3, [pc, #388]	@ (8001080 <HAL_RCC_OscConfig+0x4c4>)
 8000efa:	6a1b      	ldr	r3, [r3, #32]
 8000efc:	4a60      	ldr	r2, [pc, #384]	@ (8001080 <HAL_RCC_OscConfig+0x4c4>)
 8000efe:	f043 0304 	orr.w	r3, r3, #4
 8000f02:	6213      	str	r3, [r2, #32]
 8000f04:	4b5e      	ldr	r3, [pc, #376]	@ (8001080 <HAL_RCC_OscConfig+0x4c4>)
 8000f06:	6a1b      	ldr	r3, [r3, #32]
 8000f08:	4a5d      	ldr	r2, [pc, #372]	@ (8001080 <HAL_RCC_OscConfig+0x4c4>)
 8000f0a:	f043 0301 	orr.w	r3, r3, #1
 8000f0e:	6213      	str	r3, [r2, #32]
 8000f10:	e00b      	b.n	8000f2a <HAL_RCC_OscConfig+0x36e>
 8000f12:	4b5b      	ldr	r3, [pc, #364]	@ (8001080 <HAL_RCC_OscConfig+0x4c4>)
 8000f14:	6a1b      	ldr	r3, [r3, #32]
 8000f16:	4a5a      	ldr	r2, [pc, #360]	@ (8001080 <HAL_RCC_OscConfig+0x4c4>)
 8000f18:	f023 0301 	bic.w	r3, r3, #1
 8000f1c:	6213      	str	r3, [r2, #32]
 8000f1e:	4b58      	ldr	r3, [pc, #352]	@ (8001080 <HAL_RCC_OscConfig+0x4c4>)
 8000f20:	6a1b      	ldr	r3, [r3, #32]
 8000f22:	4a57      	ldr	r2, [pc, #348]	@ (8001080 <HAL_RCC_OscConfig+0x4c4>)
 8000f24:	f023 0304 	bic.w	r3, r3, #4
 8000f28:	6213      	str	r3, [r2, #32]
    /* Check the LSE State */
    if (RCC_OscInitStruct->LSEState != RCC_LSE_OFF)
 8000f2a:	687b      	ldr	r3, [r7, #4]
 8000f2c:	68db      	ldr	r3, [r3, #12]
 8000f2e:	2b00      	cmp	r3, #0
 8000f30:	d015      	beq.n	8000f5e <HAL_RCC_OscConfig+0x3a2>
    {
      /* Get Start Tick */
      tickstart = HAL_GetTick();
 8000f32:	f7ff fbad 	bl	8000690 <HAL_GetTick>
 8000f36:	6138      	str	r0, [r7, #16]

      /* Wait till LSE is ready */
      while (__HAL_RCC_GET_FLAG(RCC_FLAG_LSERDY) == RESET)
 8000f38:	e00a      	b.n	8000f50 <HAL_RCC_OscConfig+0x394>
      {
        if ((HAL_GetTick() - tickstart) > RCC_LSE_TIMEOUT_VALUE)
 8000f3a:	f7ff fba9 	bl	8000690 <HAL_GetTick>
 8000f3e:	4602      	mov	r2, r0
 8000f40:	693b      	ldr	r3, [r7, #16]
 8000f42:	1ad3      	subs	r3, r2, r3
 8000f44:	f241 3288 	movw	r2, #5000	@ 0x1388
 8000f48:	4293      	cmp	r3, r2
 8000f4a:	d901      	bls.n	8000f50 <HAL_RCC_OscConfig+0x394>
        {
          return HAL_TIMEOUT;
 8000f4c:	2303      	movs	r3, #3
 8000f4e:	e0b1      	b.n	80010b4 <HAL_RCC_OscConfig+0x4f8>
      while (__HAL_RCC_GET_FLAG(RCC_FLAG_LSERDY) == RESET)
 8000f50:	4b4b      	ldr	r3, [pc, #300]	@ (8001080 <HAL_RCC_OscConfig+0x4c4>)
 8000f52:	6a1b      	ldr	r3, [r3, #32]
 8000f54:	f003 0302 	and.w	r3, r3, #2
 8000f58:	2b00      	cmp	r3, #0
 8000f5a:	d0ee      	beq.n	8000f3a <HAL_RCC_OscConfig+0x37e>
 8000f5c:	e014      	b.n	8000f88 <HAL_RCC_OscConfig+0x3cc>
      }
    }
    else
    {
      /* Get Start Tick */
      tickstart = HAL_GetTick();
 8000f5e:	f7ff fb97 	bl	8000690 <HAL_GetTick>
 8000f62:	6138      	str	r0, [r7, #16]

      /* Wait till LSE is disabled */
      while (__HAL_RCC_GET_FLAG(RCC_FLAG_LSERDY) != RESET)
 8000f64:	e00a      	b.n	8000f7c <HAL_RCC_OscConfig+0x3c0>
      {
        if ((HAL_GetTick() - tickstart) > RCC_LSE_TIMEOUT_VALUE)
 8000f66:	f7ff fb93 	bl	8000690 <HAL_GetTick>
 8000f6a:	4602      	mov	r2, r0
 8000f6c:	693b      	ldr	r3, [r7, #16]
 8000f6e:	1ad3      	subs	r3, r2, r3
 8000f70:	f241 3288 	movw	r2, #5000	@ 0x1388
 8000f74:	4293      	cmp	r3, r2
 8000f76:	d901      	bls.n	8000f7c <HAL_RCC_OscConfig+0x3c0>
        {
          return HAL_TIMEOUT;
 8000f78:	2303      	movs	r3, #3
 8000f7a:	e09b      	b.n	80010b4 <HAL_RCC_OscConfig+0x4f8>
      while (__HAL_RCC_GET_FLAG(RCC_FLAG_LSERDY) != RESET)
 8000f7c:	4b40      	ldr	r3, [pc, #256]	@ (8001080 <HAL_RCC_OscConfig+0x4c4>)
 8000f7e:	6a1b      	ldr	r3, [r3, #32]
 8000f80:	f003 0302 	and.w	r3, r3, #2
 8000f84:	2b00      	cmp	r3, #0
 8000f86:	d1ee      	bne.n	8000f66 <HAL_RCC_OscConfig+0x3aa>
        }
      }
    }

    /* Require to disable power clock if necessary */
    if (pwrclkchanged == SET)
 8000f88:	7dfb      	ldrb	r3, [r7, #23]
 8000f8a:	2b01      	cmp	r3, #1
 8000f8c:	d105      	bne.n	8000f9a <HAL_RCC_OscConfig+0x3de>
    {
      __HAL_RCC_PWR_CLK_DISABLE();
 8000f8e:	4b3c      	ldr	r3, [pc, #240]	@ (8001080 <HAL_RCC_OscConfig+0x4c4>)
 8000f90:	69db      	ldr	r3, [r3, #28]
 8000f92:	4a3b      	ldr	r2, [pc, #236]	@ (8001080 <HAL_RCC_OscConfig+0x4c4>)
 8000f94:	f023 5380 	bic.w	r3, r3, #268435456	@ 0x10000000
 8000f98:	61d3      	str	r3, [r2, #28]

#endif /* RCC_CR_PLL2ON */
  /*-------------------------------- PLL Configuration -----------------------*/
  /* Check the parameters */
  assert_param(IS_RCC_PLL(RCC_OscInitStruct->PLL.PLLState));
  if ((RCC_OscInitStruct->PLL.PLLState) != RCC_PLL_NONE)
 8000f9a:	687b      	ldr	r3, [r7, #4]
 8000f9c:	69db      	ldr	r3, [r3, #28]
 8000f9e:	2b00      	cmp	r3, #0
 8000fa0:	f000 8087 	beq.w	80010b2 <HAL_RCC_OscConfig+0x4f6>
  {
    /* Check if the PLL is used as system clock or not */
    if (__HAL_RCC_GET_SYSCLK_SOURCE() != RCC_SYSCLKSOURCE_STATUS_PLLCLK)
 8000fa4:	4b36      	ldr	r3, [pc, #216]	@ (8001080 <HAL_RCC_OscConfig+0x4c4>)
 8000fa6:	685b      	ldr	r3, [r3, #4]
 8000fa8:	f003 030c 	and.w	r3, r3, #12
 8000fac:	2b08      	cmp	r3, #8
 8000fae:	d061      	beq.n	8001074 <HAL_RCC_OscConfig+0x4b8>
    {
      if ((RCC_OscInitStruct->PLL.PLLState) == RCC_PLL_ON)
 8000fb0:	687b      	ldr	r3, [r7, #4]
 8000fb2:	69db      	ldr	r3, [r3, #28]
 8000fb4:	2b02      	cmp	r3, #2
 8000fb6:	d146      	bne.n	8001046 <HAL_RCC_OscConfig+0x48a>
        /* Check the parameters */
        assert_param(IS_RCC_PLLSOURCE(RCC_OscInitStruct->PLL.PLLSource));
        assert_param(IS_RCC_PLL_MUL(RCC_OscInitStruct->PLL.PLLMUL));

        /* Disable the main PLL. */
        __HAL_RCC_PLL_DISABLE();
 8000fb8:	4b33      	ldr	r3, [pc, #204]	@ (8001088 <HAL_RCC_OscConfig+0x4cc>)
 8000fba:	2200      	movs	r2, #0
 8000fbc:	601a      	str	r2, [r3, #0]

        /* Get Start Tick */
        tickstart = HAL_GetTick();
 8000fbe:	f7ff fb67 	bl	8000690 <HAL_GetTick>
 8000fc2:	6138      	str	r0, [r7, #16]

        /* Wait till PLL is disabled */
        while (__HAL_RCC_GET_FLAG(RCC_FLAG_PLLRDY)  != RESET)
 8000fc4:	e008      	b.n	8000fd8 <HAL_RCC_OscConfig+0x41c>
        {
          if ((HAL_GetTick() - tickstart) > PLL_TIMEOUT_VALUE)
 8000fc6:	f7ff fb63 	bl	8000690 <HAL_GetTick>
 8000fca:	4602      	mov	r2, r0
 8000fcc:	693b      	ldr	r3, [r7, #16]
 8000fce:	1ad3      	subs	r3, r2, r3
 8000fd0:	2b02      	cmp	r3, #2
 8000fd2:	d901      	bls.n	8000fd8 <HAL_RCC_OscConfig+0x41c>
          {
            return HAL_TIMEOUT;
 8000fd4:	2303      	movs	r3, #3
 8000fd6:	e06d      	b.n	80010b4 <HAL_RCC_OscConfig+0x4f8>
        while (__HAL_RCC_GET_FLAG(RCC_FLAG_PLLRDY)  != RESET)
 8000fd8:	4b29      	ldr	r3, [pc, #164]	@ (8001080 <HAL_RCC_OscConfig+0x4c4>)
 8000fda:	681b      	ldr	r3, [r3, #0]
 8000fdc:	f003 7300 	and.w	r3, r3, #33554432	@ 0x2000000
 8000fe0:	2b00      	cmp	r3, #0
 8000fe2:	d1f0      	bne.n	8000fc6 <HAL_RCC_OscConfig+0x40a>
          }
        }

        /* Configure the HSE prediv factor --------------------------------*/
        /* It can be written only when the PLL is disabled. Not used in PLL source is different than HSE */
        if (RCC_OscInitStruct->PLL.PLLSource == RCC_PLLSOURCE_HSE)
 8000fe4:	687b      	ldr	r3, [r7, #4]
 8000fe6:	6a1b      	ldr	r3, [r3, #32]
 8000fe8:	f5b3 3f80 	cmp.w	r3, #65536	@ 0x10000
 8000fec:	d108      	bne.n	8001000 <HAL_RCC_OscConfig+0x444>
          /* Set PREDIV1 source */
          SET_BIT(RCC->CFGR2, RCC_OscInitStruct->Prediv1Source);
#endif /* RCC_CFGR2_PREDIV1SRC */

          /* Set PREDIV1 Value */
          __HAL_RCC_HSE_PREDIV_CONFIG(RCC_OscInitStruct->HSEPredivValue);
 8000fee:	4b24      	ldr	r3, [pc, #144]	@ (8001080 <HAL_RCC_OscConfig+0x4c4>)
 8000ff0:	685b      	ldr	r3, [r3, #4]
 8000ff2:	f423 3200 	bic.w	r2, r3, #131072	@ 0x20000
 8000ff6:	687b      	ldr	r3, [r7, #4]
 8000ff8:	689b      	ldr	r3, [r3, #8]
 8000ffa:	4921      	ldr	r1, [pc, #132]	@ (8001080 <HAL_RCC_OscConfig+0x4c4>)
 8000ffc:	4313      	orrs	r3, r2
 8000ffe:	604b      	str	r3, [r1, #4]
        }

        /* Configure the main PLL clock source and multiplication factors. */
        __HAL_RCC_PLL_CONFIG(RCC_OscInitStruct->PLL.PLLSource,
 8001000:	4b1f      	ldr	r3, [pc, #124]	@ (8001080 <HAL_RCC_OscConfig+0x4c4>)
 8001002:	685b      	ldr	r3, [r3, #4]
 8001004:	f423 1274 	bic.w	r2, r3, #3997696	@ 0x3d0000
 8001008:	687b      	ldr	r3, [r7, #4]
 800100a:	6a19      	ldr	r1, [r3, #32]
 800100c:	687b      	ldr	r3, [r7, #4]
 800100e:	6a5b      	ldr	r3, [r3, #36]	@ 0x24
 8001010:	430b      	orrs	r3, r1
 8001012:	491b      	ldr	r1, [pc, #108]	@ (8001080 <HAL_RCC_OscConfig+0x4c4>)
 8001014:	4313      	orrs	r3, r2
 8001016:	604b      	str	r3, [r1, #4]
                             RCC_OscInitStruct->PLL.PLLMUL);
        /* Enable the main PLL. */
        __HAL_RCC_PLL_ENABLE();
 8001018:	4b1b      	ldr	r3, [pc, #108]	@ (8001088 <HAL_RCC_OscConfig+0x4cc>)
 800101a:	2201      	movs	r2, #1
 800101c:	601a      	str	r2, [r3, #0]

        /* Get Start Tick */
        tickstart = HAL_GetTick();
 800101e:	f7ff fb37 	bl	8000690 <HAL_GetTick>
 8001022:	6138      	str	r0, [r7, #16]

        /* Wait till PLL is ready */
        while (__HAL_RCC_GET_FLAG(RCC_FLAG_PLLRDY)  == RESET)
 8001024:	e008      	b.n	8001038 <HAL_RCC_OscConfig+0x47c>
        {
          if ((HAL_GetTick() - tickstart) > PLL_TIMEOUT_VALUE)
 8001026:	f7ff fb33 	bl	8000690 <HAL_GetTick>
 800102a:	4602      	mov	r2, r0
 800102c:	693b      	ldr	r3, [r7, #16]
 800102e:	1ad3      	subs	r3, r2, r3
 8001030:	2b02      	cmp	r3, #2
 8001032:	d901      	bls.n	8001038 <HAL_RCC_OscConfig+0x47c>
          {
            return HAL_TIMEOUT;
 8001034:	2303      	movs	r3, #3
 8001036:	e03d      	b.n	80010b4 <HAL_RCC_OscConfig+0x4f8>
        while (__HAL_RCC_GET_FLAG(RCC_FLAG_PLLRDY)  == RESET)
 8001038:	4b11      	ldr	r3, [pc, #68]	@ (8001080 <HAL_RCC_OscConfig+0x4c4>)
 800103a:	681b      	ldr	r3, [r3, #0]
 800103c:	f003 7300 	and.w	r3, r3, #33554432	@ 0x2000000
 8001040:	2b00      	cmp	r3, #0
 8001042:	d0f0      	beq.n	8001026 <HAL_RCC_OscConfig+0x46a>
 8001044:	e035      	b.n	80010b2 <HAL_RCC_OscConfig+0x4f6>
        }
      }
      else
      {
        /* Disable the main PLL. */
        __HAL_RCC_PLL_DISABLE();
 8001046:	4b10      	ldr	r3, [pc, #64]	@ (8001088 <HAL_RCC_OscConfig+0x4cc>)
 8001048:	2200      	movs	r2, #0
 800104a:	601a      	str	r2, [r3, #0]

        /* Get Start Tick */
        tickstart = HAL_GetTick();
 800104c:	f7ff fb20 	bl	8000690 <HAL_GetTick>
 8001050:	6138      	str	r0, [r7, #16]

        /* Wait till PLL is disabled */
        while (__HAL_RCC_GET_FLAG(RCC_FLAG_PLLRDY)  != RESET)
 8001052:	e008      	b.n	8001066 <HAL_RCC_OscConfig+0x4aa>
        {
          if ((HAL_GetTick() - tickstart) > PLL_TIMEOUT_VALUE)
 8001054:	f7ff fb1c 	bl	8000690 <HAL_GetTick>
 8001058:	4602      	mov	r2, r0
 800105a:	693b      	ldr	r3, [r7, #16]
 800105c:	1ad3      	subs	r3, r2, r3
 800105e:	2b02      	cmp	r3, #2
 8001060:	d901      	bls.n	8001066 <HAL_RCC_OscConfig+0x4aa>
          {
            return HAL_TIMEOUT;
 8001062:	2303      	movs	r3, #3
 8001064:	e026      	b.n	80010b4 <HAL_RCC_OscConfig+0x4f8>
        while (__HAL_RCC_GET_FLAG(RCC_FLAG_PLLRDY)  != RESET)
 8001066:	4b06      	ldr	r3, [pc, #24]	@ (8001080 <HAL_RCC_OscConfig+0x4c4>)
 8001068:	681b      	ldr	r3, [r3, #0]
 800106a:	f003 7300 	and.w	r3, r3, #33554432	@ 0x2000000
 800106e:	2b00      	cmp	r3, #0
 8001070:	d1f0      	bne.n	8001054 <HAL_RCC_OscConfig+0x498>
 8001072:	e01e      	b.n	80010b2 <HAL_RCC_OscConfig+0x4f6>
      }
    }
    else
    {
      /* Check if there is a request to disable the PLL used as System clock source */
      if ((RCC_OscInitStruct->PLL.PLLState) == RCC_PLL_OFF)
 8001074:	687b      	ldr	r3, [r7, #4]
 8001076:	69db      	ldr	r3, [r3, #28]
 8001078:	2b01      	cmp	r3, #1
 800107a:	d107      	bne.n	800108c <HAL_RCC_OscConfig+0x4d0>
      {
        return HAL_ERROR;
 800107c:	2301      	movs	r3, #1
 800107e:	e019      	b.n	80010b4 <HAL_RCC_OscConfig+0x4f8>
 8001080:	40021000 	.word	0x40021000
 8001084:	40007000 	.word	0x40007000
 8001088:	42420060 	.word	0x42420060
      }
      else
      {
        /* Do not return HAL_ERROR if request repeats the current configuration */
        pll_config = RCC->CFGR;
 800108c:	4b0b      	ldr	r3, [pc, #44]	@ (80010bc <HAL_RCC_OscConfig+0x500>)
 800108e:	685b      	ldr	r3, [r3, #4]
 8001090:	60fb      	str	r3, [r7, #12]
        if ((READ_BIT(pll_config, RCC_CFGR_PLLSRC) != RCC_OscInitStruct->PLL.PLLSource) ||
 8001092:	68fb      	ldr	r3, [r7, #12]
 8001094:	f403 3280 	and.w	r2, r3, #65536	@ 0x10000
 8001098:	687b      	ldr	r3, [r7, #4]
 800109a:	6a1b      	ldr	r3, [r3, #32]
 800109c:	429a      	cmp	r2, r3
 800109e:	d106      	bne.n	80010ae <HAL_RCC_OscConfig+0x4f2>
            (READ_BIT(pll_config, RCC_CFGR_PLLMULL) != RCC_OscInitStruct->PLL.PLLMUL))
 80010a0:	68fb      	ldr	r3, [r7, #12]
 80010a2:	f403 1270 	and.w	r2, r3, #3932160	@ 0x3c0000
 80010a6:	687b      	ldr	r3, [r7, #4]
 80010a8:	6a5b      	ldr	r3, [r3, #36]	@ 0x24
        if ((READ_BIT(pll_config, RCC_CFGR_PLLSRC) != RCC_OscInitStruct->PLL.PLLSource) ||
 80010aa:	429a      	cmp	r2, r3
 80010ac:	d001      	beq.n	80010b2 <HAL_RCC_OscConfig+0x4f6>
        {
          return HAL_ERROR;
 80010ae:	2301      	movs	r3, #1
 80010b0:	e000      	b.n	80010b4 <HAL_RCC_OscConfig+0x4f8>
        }
      }
    }
  }

  return HAL_OK;
 80010b2:	2300      	movs	r3, #0
}
 80010b4:	4618      	mov	r0, r3
 80010b6:	3718      	adds	r7, #24
 80010b8:	46bd      	mov	sp, r7
 80010ba:	bd80      	pop	{r7, pc}
 80010bc:	40021000 	.word	0x40021000

080010c0 <HAL_RCC_ClockConfig>:
  *         You can use @ref HAL_RCC_GetClockConfig() function to know which clock is
  *         currently used as system clock source.
  * @retval HAL status
  */
HAL_StatusTypeDef HAL_RCC_ClockConfig(RCC_ClkInitTypeDef  *RCC_ClkInitStruct, uint32_t FLatency)
{
 80010c0:	b580      	push	{r7, lr}
 80010c2:	b084      	sub	sp, #16
 80010c4:	af00      	add	r7, sp, #0
 80010c6:	6078      	str	r0, [r7, #4]
 80010c8:	6039      	str	r1, [r7, #0]
  uint32_t tickstart;

  /* Check Null pointer */
  if (RCC_ClkInitStruct == NULL)
 80010ca:	687b      	ldr	r3, [r7, #4]
 80010cc:	2b00      	cmp	r3, #0
 80010ce:	d101      	bne.n	80010d4 <HAL_RCC_ClockConfig+0x14>
  {
    return HAL_ERROR;
 80010d0:	2301      	movs	r3, #1
 80010d2:	e0d0      	b.n	8001276 <HAL_RCC_ClockConfig+0x1b6>
  must be correctly programmed according to the frequency of the CPU clock
    (HCLK) of the device. */

#if defined(FLASH_ACR_LATENCY)
  /* Increasing the number of wait states because of higher CPU frequency */
  if (FLatency > __HAL_FLASH_GET_LATENCY())
 80010d4:	4b6a      	ldr	r3, [pc, #424]	@ (8001280 <HAL_RCC_ClockConfig+0x1c0>)
 80010d6:	681b      	ldr	r3, [r3, #0]
 80010d8:	f003 0307 	and.w	r3, r3, #7
 80010dc:	683a      	ldr	r2, [r7, #0]
 80010de:	429a      	cmp	r2, r3
 80010e0:	d910      	bls.n	8001104 <HAL_RCC_ClockConfig+0x44>
  {
    /* Program the new number of wait states to the LATENCY bits in the FLASH_ACR register */
    __HAL_FLASH_SET_LATENCY(FLatency);
 80010e2:	4b67      	ldr	r3, [pc, #412]	@ (8001280 <HAL_RCC_ClockConfig+0x1c0>)
 80010e4:	681b      	ldr	r3, [r3, #0]
 80010e6:	f023 0207 	bic.w	r2, r3, #7
 80010ea:	4965      	ldr	r1, [pc, #404]	@ (8001280 <HAL_RCC_ClockConfig+0x1c0>)
 80010ec:	683b      	ldr	r3, [r7, #0]
 80010ee:	4313      	orrs	r3, r2
 80010f0:	600b      	str	r3, [r1, #0]

    /* Check that the new number of wait states is taken into account to access the Flash
    memory by reading the FLASH_ACR register */
    if (__HAL_FLASH_GET_LATENCY() != FLatency)
 80010f2:	4b63      	ldr	r3, [pc, #396]	@ (8001280 <HAL_RCC_ClockConfig+0x1c0>)
 80010f4:	681b      	ldr	r3, [r3, #0]
 80010f6:	f003 0307 	and.w	r3, r3, #7
 80010fa:	683a      	ldr	r2, [r7, #0]
 80010fc:	429a      	cmp	r2, r3
 80010fe:	d001      	beq.n	8001104 <HAL_RCC_ClockConfig+0x44>
  {
    return HAL_ERROR;
 8001100:	2301      	movs	r3, #1
 8001102:	e0b8      	b.n	8001276 <HAL_RCC_ClockConfig+0x1b6>
  }
}

#endif /* FLASH_ACR_LATENCY */
/*-------------------------- HCLK Configuration --------------------------*/
if (((RCC_ClkInitStruct->ClockType) & RCC_CLOCKTYPE_HCLK) == RCC_CLOCKTYPE_HCLK)
 8001104:	687b      	ldr	r3, [r7, #4]
 8001106:	681b      	ldr	r3, [r3, #0]
 8001108:	f003 0302 	and.w	r3, r3, #2
 800110c:	2b00      	cmp	r3, #0
 800110e:	d020      	beq.n	8001152 <HAL_RCC_ClockConfig+0x92>
  {
    /* Set the highest APBx dividers in order to ensure that we do not go through
    a non-spec phase whatever we decrease or increase HCLK. */
    if (((RCC_ClkInitStruct->ClockType) & RCC_CLOCKTYPE_PCLK1) == RCC_CLOCKTYPE_PCLK1)
 8001110:	687b      	ldr	r3, [r7, #4]
 8001112:	681b      	ldr	r3, [r3, #0]
 8001114:	f003 0304 	and.w	r3, r3, #4
 8001118:	2b00      	cmp	r3, #0
 800111a:	d005      	beq.n	8001128 <HAL_RCC_ClockConfig+0x68>
    {
      MODIFY_REG(RCC->CFGR, RCC_CFGR_PPRE1, RCC_HCLK_DIV16);
 800111c:	4b59      	ldr	r3, [pc, #356]	@ (8001284 <HAL_RCC_ClockConfig+0x1c4>)
 800111e:	685b      	ldr	r3, [r3, #4]
 8001120:	4a58      	ldr	r2, [pc, #352]	@ (8001284 <HAL_RCC_ClockConfig+0x1c4>)
 8001122:	f443 63e0 	orr.w	r3, r3, #1792	@ 0x700
 8001126:	6053      	str	r3, [r2, #4]
    }

    if (((RCC_ClkInitStruct->ClockType) & RCC_CLOCKTYPE_PCLK2) == RCC_CLOCKTYPE_PCLK2)
 8001128:	687b      	ldr	r3, [r7, #4]
 800112a:	681b      	ldr	r3, [r3, #0]
 800112c:	f003 0308 	and.w	r3, r3, #8
 8001130:	2b00      	cmp	r3, #0
 8001132:	d005      	beq.n	8001140 <HAL_RCC_ClockConfig+0x80>
    {
      MODIFY_REG(RCC->CFGR, RCC_CFGR_PPRE2, (RCC_HCLK_DIV16 << 3));
 8001134:	4b53      	ldr	r3, [pc, #332]	@ (8001284 <HAL_RCC_ClockConfig+0x1c4>)
 8001136:	685b      	ldr	r3, [r3, #4]
 8001138:	4a52      	ldr	r2, [pc, #328]	@ (8001284 <HAL_RCC_ClockConfig+0x1c4>)
 800113a:	f443 5360 	orr.w	r3, r3, #14336	@ 0x3800
 800113e:	6053      	str	r3, [r2, #4]
    }

    /* Set the new HCLK clock divider */
    assert_param(IS_RCC_HCLK(RCC_ClkInitStruct->AHBCLKDivider));
    MODIFY_REG(RCC->CFGR, RCC_CFGR_HPRE, RCC_ClkInitStruct->AHBCLKDivider);
 8001140:	4b50      	ldr	r3, [pc, #320]	@ (8001284 <HAL_RCC_ClockConfig+0x1c4>)
 8001142:	685b      	ldr	r3, [r3, #4]
 8001144:	f023 02f0 	bic.w	r2, r3, #240	@ 0xf0
 8001148:	687b      	ldr	r3, [r7, #4]
 800114a:	689b      	ldr	r3, [r3, #8]
 800114c:	494d      	ldr	r1, [pc, #308]	@ (8001284 <HAL_RCC_ClockConfig+0x1c4>)
 800114e:	4313      	orrs	r3, r2
 8001150:	604b      	str	r3, [r1, #4]
  }

  /*------------------------- SYSCLK Configuration ---------------------------*/
  if (((RCC_ClkInitStruct->ClockType) & RCC_CLOCKTYPE_SYSCLK) == RCC_CLOCKTYPE_SYSCLK)
 8001152:	687b      	ldr	r3, [r7, #4]
 8001154:	681b      	ldr	r3, [r3, #0]
 8001156:	f003 0301 	and.w	r3, r3, #1
 800115a:	2b00      	cmp	r3, #0
 800115c:	d040      	beq.n	80011e0 <HAL_RCC_ClockConfig+0x120>
  {
    assert_param(IS_RCC_SYSCLKSOURCE(RCC_ClkInitStruct->SYSCLKSource));

    /* HSE is selected as System Clock Source */
    if (RCC_ClkInitStruct->SYSCLKSource == RCC_SYSCLKSOURCE_HSE)
 800115e:	687b      	ldr	r3, [r7, #4]
 8001160:	685b      	ldr	r3, [r3, #4]
 8001162:	2b01      	cmp	r3, #1
 8001164:	d107      	bne.n	8001176 <HAL_RCC_ClockConfig+0xb6>
    {
      /* Check the HSE ready flag */
      if (__HAL_RCC_GET_FLAG(RCC_FLAG_HSERDY) == RESET)
 8001166:	4b47      	ldr	r3, [pc, #284]	@ (8001284 <HAL_RCC_ClockConfig+0x1c4>)
 8001168:	681b      	ldr	r3, [r3, #0]
 800116a:	f403 3300 	and.w	r3, r3, #131072	@ 0x20000
 800116e:	2b00      	cmp	r3, #0
 8001170:	d115      	bne.n	800119e <HAL_RCC_ClockConfig+0xde>
      {
        return HAL_ERROR;
 8001172:	2301      	movs	r3, #1
 8001174:	e07f      	b.n	8001276 <HAL_RCC_ClockConfig+0x1b6>
      }
    }
    /* PLL is selected as System Clock Source */
    else if (RCC_ClkInitStruct->SYSCLKSource == RCC_SYSCLKSOURCE_PLLCLK)
 8001176:	687b      	ldr	r3, [r7, #4]
 8001178:	685b      	ldr	r3, [r3, #4]
 800117a:	2b02      	cmp	r3, #2
 800117c:	d107      	bne.n	800118e <HAL_RCC_ClockConfig+0xce>
    {
      /* Check the PLL ready flag */
      if (__HAL_RCC_GET_FLAG(RCC_FLAG_PLLRDY) == RESET)
 800117e:	4b41      	ldr	r3, [pc, #260]	@ (8001284 <HAL_RCC_ClockConfig+0x1c4>)
 8001180:	681b      	ldr	r3, [r3, #0]
 8001182:	f003 7300 	and.w	r3, r3, #33554432	@ 0x2000000
 8001186:	2b00      	cmp	r3, #0
 8001188:	d109      	bne.n	800119e <HAL_RCC_ClockConfig+0xde>
      {
        return HAL_ERROR;
 800118a:	2301      	movs	r3, #1
 800118c:	e073      	b.n	8001276 <HAL_RCC_ClockConfig+0x1b6>
    }
    /* HSI is selected as System Clock Source */
    else
    {
      /* Check the HSI ready flag */
      if (__HAL_RCC_GET_FLAG(RCC_FLAG_HSIRDY) == RESET)
 800118e:	4b3d      	ldr	r3, [pc, #244]	@ (8001284 <HAL_RCC_ClockConfig+0x1c4>)
 8001190:	681b      	ldr	r3, [r3, #0]
 8001192:	f003 0302 	and.w	r3, r3, #2
 8001196:	2b00      	cmp	r3, #0
 8001198:	d101      	bne.n	800119e <HAL_RCC_ClockConfig+0xde>
      {
        return HAL_ERROR;
 800119a:	2301      	movs	r3, #1
 800119c:	e06b      	b.n	8001276 <HAL_RCC_ClockConfig+0x1b6>
      }
    }
    __HAL_RCC_SYSCLK_CONFIG(RCC_ClkInitStruct->SYSCLKSource);
 800119e:	4b39      	ldr	r3, [pc, #228]	@ (8001284 <HAL_RCC_ClockConfig+0x1c4>)
 80011a0:	685b      	ldr	r3, [r3, #4]
 80011a2:	f023 0203 	bic.w	r2, r3, #3
 80011a6:	687b      	ldr	r3, [r7, #4]
 80011a8:	685b      	ldr	r3, [r3, #4]
 80011aa:	4936      	ldr	r1, [pc, #216]	@ (8001284 <HAL_RCC_ClockConfig+0x1c4>)
 80011ac:	4313      	orrs	r3, r2
 80011ae:	604b      	str	r3, [r1, #4]

    /* Get Start Tick */
    tickstart = HAL_GetTick();
 80011b0:	f7ff fa6e 	bl	8000690 <HAL_GetTick>
 80011b4:	60f8      	str	r0, [r7, #12]

    while (__HAL_RCC_GET_SYSCLK_SOURCE() != (RCC_ClkInitStruct->SYSCLKSource << RCC_CFGR_SWS_Pos))
 80011b6:	e00a      	b.n	80011ce <HAL_RCC_ClockConfig+0x10e>
    {
      if ((HAL_GetTick() - tickstart) > CLOCKSWITCH_TIMEOUT_VALUE)
 80011b8:	f7ff fa6a 	bl	8000690 <HAL_GetTick>
 80011bc:	4602      	mov	r2, r0
 80011be:	68fb      	ldr	r3, [r7, #12]
 80011c0:	1ad3      	subs	r3, r2, r3
 80011c2:	f241 3288 	movw	r2, #5000	@ 0x1388
 80011c6:	4293      	cmp	r3, r2
 80011c8:	d901      	bls.n	80011ce <HAL_RCC_ClockConfig+0x10e>
      {
        return HAL_TIMEOUT;
 80011ca:	2303      	movs	r3, #3
 80011cc:	e053      	b.n	8001276 <HAL_RCC_ClockConfig+0x1b6>
    while (__HAL_RCC_GET_SYSCLK_SOURCE() != (RCC_ClkInitStruct->SYSCLKSource << RCC_CFGR_SWS_Pos))
 80011ce:	4b2d      	ldr	r3, [pc, #180]	@ (8001284 <HAL_RCC_ClockConfig+0x1c4>)
 80011d0:	685b      	ldr	r3, [r3, #4]
 80011d2:	f003 020c 	and.w	r2, r3, #12
 80011d6:	687b      	ldr	r3, [r7, #4]
 80011d8:	685b      	ldr	r3, [r3, #4]
 80011da:	009b      	lsls	r3, r3, #2
 80011dc:	429a      	cmp	r2, r3
 80011de:	d1eb      	bne.n	80011b8 <HAL_RCC_ClockConfig+0xf8>
    }
  }

#if defined(FLASH_ACR_LATENCY)
  /* Decreasing the number of wait states because of lower CPU frequency */
  if (FLatency < __HAL_FLASH_GET_LATENCY())
 80011e0:	4b27      	ldr	r3, [pc, #156]	@ (8001280 <HAL_RCC_ClockConfig+0x1c0>)
 80011e2:	681b      	ldr	r3, [r3, #0]
 80011e4:	f003 0307 	and.w	r3, r3, #7
 80011e8:	683a      	ldr	r2, [r7, #0]
 80011ea:	429a      	cmp	r2, r3
 80011ec:	d210      	bcs.n	8001210 <HAL_RCC_ClockConfig+0x150>
  {
    /* Program the new number of wait states to the LATENCY bits in the FLASH_ACR register */
    __HAL_FLASH_SET_LATENCY(FLatency);
 80011ee:	4b24      	ldr	r3, [pc, #144]	@ (8001280 <HAL_RCC_ClockConfig+0x1c0>)
 80011f0:	681b      	ldr	r3, [r3, #0]
 80011f2:	f023 0207 	bic.w	r2, r3, #7
 80011f6:	4922      	ldr	r1, [pc, #136]	@ (8001280 <HAL_RCC_ClockConfig+0x1c0>)
 80011f8:	683b      	ldr	r3, [r7, #0]
 80011fa:	4313      	orrs	r3, r2
 80011fc:	600b      	str	r3, [r1, #0]

    /* Check that the new number of wait states is taken into account to access the Flash
    memory by reading the FLASH_ACR register */
    if (__HAL_FLASH_GET_LATENCY() != FLatency)
 80011fe:	4b20      	ldr	r3, [pc, #128]	@ (8001280 <HAL_RCC_ClockConfig+0x1c0>)
 8001200:	681b      	ldr	r3, [r3, #0]
 8001202:	f003 0307 	and.w	r3, r3, #7
 8001206:	683a      	ldr	r2, [r7, #0]
 8001208:	429a      	cmp	r2, r3
 800120a:	d001      	beq.n	8001210 <HAL_RCC_ClockConfig+0x150>
  {
    return HAL_ERROR;
 800120c:	2301      	movs	r3, #1
 800120e:	e032      	b.n	8001276 <HAL_RCC_ClockConfig+0x1b6>
  }
}
#endif /* FLASH_ACR_LATENCY */

/*-------------------------- PCLK1 Configuration ---------------------------*/
if (((RCC_ClkInitStruct->ClockType) & RCC_CLOCKTYPE_PCLK1) == RCC_CLOCKTYPE_PCLK1)
 8001210:	687b      	ldr	r3, [r7, #4]
 8001212:	681b      	ldr	r3, [r3, #0]
 8001214:	f003 0304 	and.w	r3, r3, #4
 8001218:	2b00      	cmp	r3, #0
 800121a:	d008      	beq.n	800122e <HAL_RCC_ClockConfig+0x16e>
  {
    assert_param(IS_RCC_PCLK(RCC_ClkInitStruct->APB1CLKDivider));
    MODIFY_REG(RCC->CFGR, RCC_CFGR_PPRE1, RCC_ClkInitStruct->APB1CLKDivider);
 800121c:	4b19      	ldr	r3, [pc, #100]	@ (8001284 <HAL_RCC_ClockConfig+0x1c4>)
 800121e:	685b      	ldr	r3, [r3, #4]
 8001220:	f423 62e0 	bic.w	r2, r3, #1792	@ 0x700
 8001224:	687b      	ldr	r3, [r7, #4]
 8001226:	68db      	ldr	r3, [r3, #12]
 8001228:	4916      	ldr	r1, [pc, #88]	@ (8001284 <HAL_RCC_ClockConfig+0x1c4>)
 800122a:	4313      	orrs	r3, r2
 800122c:	604b      	str	r3, [r1, #4]
  }

  /*-------------------------- PCLK2 Configuration ---------------------------*/
  if (((RCC_ClkInitStruct->ClockType) & RCC_CLOCKTYPE_PCLK2) == RCC_CLOCKTYPE_PCLK2)
 800122e:	687b      	ldr	r3, [r7, #4]
 8001230:	681b      	ldr	r3, [r3, #0]
 8001232:	f003 0308 	and.w	r3, r3, #8
 8001236:	2b00      	cmp	r3, #0
 8001238:	d009      	beq.n	800124e <HAL_RCC_ClockConfig+0x18e>
  {
    assert_param(IS_RCC_PCLK(RCC_ClkInitStruct->APB2CLKDivider));
    MODIFY_REG(RCC->CFGR, RCC_CFGR_PPRE2, ((RCC_ClkInitStruct->APB2CLKDivider) << 3));
 800123a:	4b12      	ldr	r3, [pc, #72]	@ (8001284 <HAL_RCC_ClockConfig+0x1c4>)
 800123c:	685b      	ldr	r3, [r3, #4]
 800123e:	f423 5260 	bic.w	r2, r3, #14336	@ 0x3800
 8001242:	687b      	ldr	r3, [r7, #4]
 8001244:	691b      	ldr	r3, [r3, #16]
 8001246:	00db      	lsls	r3, r3, #3
 8001248:	490e      	ldr	r1, [pc, #56]	@ (8001284 <HAL_RCC_ClockConfig+0x1c4>)
 800124a:	4313      	orrs	r3, r2
 800124c:	604b      	str	r3, [r1, #4]
  }

  /* Update the SystemCoreClock global variable */
  SystemCoreClock = HAL_RCC_GetSysClockFreq() >> AHBPrescTable[(RCC->CFGR & RCC_CFGR_HPRE) >> RCC_CFGR_HPRE_Pos];
 800124e:	f000 f821 	bl	8001294 <HAL_RCC_GetSysClockFreq>
 8001252:	4602      	mov	r2, r0
 8001254:	4b0b      	ldr	r3, [pc, #44]	@ (8001284 <HAL_RCC_ClockConfig+0x1c4>)
 8001256:	685b      	ldr	r3, [r3, #4]
 8001258:	091b      	lsrs	r3, r3, #4
 800125a:	f003 030f 	and.w	r3, r3, #15
 800125e:	490a      	ldr	r1, [pc, #40]	@ (8001288 <HAL_RCC_ClockConfig+0x1c8>)
 8001260:	5ccb      	ldrb	r3, [r1, r3]
 8001262:	fa22 f303 	lsr.w	r3, r2, r3
 8001266:	4a09      	ldr	r2, [pc, #36]	@ (800128c <HAL_RCC_ClockConfig+0x1cc>)
 8001268:	6013      	str	r3, [r2, #0]

  /* Configure the source of time base considering new system clocks settings*/
  HAL_InitTick(uwTickPrio);
 800126a:	4b09      	ldr	r3, [pc, #36]	@ (8001290 <HAL_RCC_ClockConfig+0x1d0>)
 800126c:	681b      	ldr	r3, [r3, #0]
 800126e:	4618      	mov	r0, r3
 8001270:	f7ff f9cc 	bl	800060c <HAL_InitTick>

  return HAL_OK;
 8001274:	2300      	movs	r3, #0
}
 8001276:	4618      	mov	r0, r3
 8001278:	3710      	adds	r7, #16
 800127a:	46bd      	mov	sp, r7
 800127c:	bd80      	pop	{r7, pc}
 800127e:	bf00      	nop
 8001280:	40022000 	.word	0x40022000
 8001284:	40021000 	.word	0x40021000
 8001288:	08001fac 	.word	0x08001fac
 800128c:	20000000 	.word	0x20000000
 8001290:	20000004 	.word	0x20000004

08001294 <HAL_RCC_GetSysClockFreq>:
  *         right SYSCLK value. Otherwise, any configuration based on this function will be incorrect.
  *
  * @retval SYSCLK frequency
  */
uint32_t HAL_RCC_GetSysClockFreq(void)
{
 8001294:	b480      	push	{r7}
 8001296:	b087      	sub	sp, #28
 8001298:	af00      	add	r7, sp, #0
#else
  static const uint8_t aPredivFactorTable[2U] = {1, 2};
#endif /*RCC_CFGR2_PREDIV1*/

#endif
  uint32_t tmpreg = 0U, prediv = 0U, pllclk = 0U, pllmul = 0U;
 800129a:	2300      	movs	r3, #0
 800129c:	60fb      	str	r3, [r7, #12]
 800129e:	2300      	movs	r3, #0
 80012a0:	60bb      	str	r3, [r7, #8]
 80012a2:	2300      	movs	r3, #0
 80012a4:	617b      	str	r3, [r7, #20]
 80012a6:	2300      	movs	r3, #0
 80012a8:	607b      	str	r3, [r7, #4]
  uint32_t sysclockfreq = 0U;
 80012aa:	2300      	movs	r3, #0
 80012ac:	613b      	str	r3, [r7, #16]
#if defined(RCC_CFGR2_PREDIV1SRC)
  uint32_t prediv2 = 0U, pll2mul = 0U;
#endif /*RCC_CFGR2_PREDIV1SRC*/

  tmpreg = RCC->CFGR;
 80012ae:	4b1e      	ldr	r3, [pc, #120]	@ (8001328 <HAL_RCC_GetSysClockFreq+0x94>)
 80012b0:	685b      	ldr	r3, [r3, #4]
 80012b2:	60fb      	str	r3, [r7, #12]

  /* Get SYSCLK source -------------------------------------------------------*/
  switch (tmpreg & RCC_CFGR_SWS)
 80012b4:	68fb      	ldr	r3, [r7, #12]
 80012b6:	f003 030c 	and.w	r3, r3, #12
 80012ba:	2b04      	cmp	r3, #4
 80012bc:	d002      	beq.n	80012c4 <HAL_RCC_GetSysClockFreq+0x30>
 80012be:	2b08      	cmp	r3, #8
 80012c0:	d003      	beq.n	80012ca <HAL_RCC_GetSysClockFreq+0x36>
 80012c2:	e027      	b.n	8001314 <HAL_RCC_GetSysClockFreq+0x80>
  {
    case RCC_SYSCLKSOURCE_STATUS_HSE:  /* HSE used as system clock */
    {
      sysclockfreq = HSE_VALUE;
 80012c4:	4b19      	ldr	r3, [pc, #100]	@ (800132c <HAL_RCC_GetSysClockFreq+0x98>)
 80012c6:	613b      	str	r3, [r7, #16]
      break;
 80012c8:	e027      	b.n	800131a <HAL_RCC_GetSysClockFreq+0x86>
    }
    case RCC_SYSCLKSOURCE_STATUS_PLLCLK:  /* PLL used as system clock */
    {
      pllmul = aPLLMULFactorTable[(uint32_t)(tmpreg & RCC_CFGR_PLLMULL) >> RCC_CFGR_PLLMULL_Pos];
 80012ca:	68fb      	ldr	r3, [r7, #12]
 80012cc:	0c9b      	lsrs	r3, r3, #18
 80012ce:	f003 030f 	and.w	r3, r3, #15
 80012d2:	4a17      	ldr	r2, [pc, #92]	@ (8001330 <HAL_RCC_GetSysClockFreq+0x9c>)
 80012d4:	5cd3      	ldrb	r3, [r2, r3]
 80012d6:	607b      	str	r3, [r7, #4]
      if ((tmpreg & RCC_CFGR_PLLSRC) != RCC_PLLSOURCE_HSI_DIV2)
 80012d8:	68fb      	ldr	r3, [r7, #12]
 80012da:	f403 3380 	and.w	r3, r3, #65536	@ 0x10000
 80012de:	2b00      	cmp	r3, #0
 80012e0:	d010      	beq.n	8001304 <HAL_RCC_GetSysClockFreq+0x70>
      {
#if defined(RCC_CFGR2_PREDIV1)
        prediv = aPredivFactorTable[(uint32_t)(RCC->CFGR2 & RCC_CFGR2_PREDIV1) >> RCC_CFGR2_PREDIV1_Pos];
#else
        prediv = aPredivFactorTable[(uint32_t)(RCC->CFGR & RCC_CFGR_PLLXTPRE) >> RCC_CFGR_PLLXTPRE_Pos];
 80012e2:	4b11      	ldr	r3, [pc, #68]	@ (8001328 <HAL_RCC_GetSysClockFreq+0x94>)
 80012e4:	685b      	ldr	r3, [r3, #4]
 80012e6:	0c5b      	lsrs	r3, r3, #17
 80012e8:	f003 0301 	and.w	r3, r3, #1
 80012ec:	4a11      	ldr	r2, [pc, #68]	@ (8001334 <HAL_RCC_GetSysClockFreq+0xa0>)
 80012ee:	5cd3      	ldrb	r3, [r2, r3]
 80012f0:	60bb      	str	r3, [r7, #8]
        {
          pllclk = pllclk / 2;
        }
#else
        /* HSE used as PLL clock source : PLLCLK = HSE/PREDIV1 * PLLMUL */
        pllclk = (uint32_t)((HSE_VALUE  * pllmul) / prediv);
 80012f2:	687b      	ldr	r3, [r7, #4]
 80012f4:	4a0d      	ldr	r2, [pc, #52]	@ (800132c <HAL_RCC_GetSysClockFreq+0x98>)
 80012f6:	fb03 f202 	mul.w	r2, r3, r2
 80012fa:	68bb      	ldr	r3, [r7, #8]
 80012fc:	fbb2 f3f3 	udiv	r3, r2, r3
 8001300:	617b      	str	r3, [r7, #20]
 8001302:	e004      	b.n	800130e <HAL_RCC_GetSysClockFreq+0x7a>
#endif /*RCC_CFGR2_PREDIV1SRC*/
      }
      else
      {
        /* HSI used as PLL clock source : PLLCLK = HSI/2 * PLLMUL */
        pllclk = (uint32_t)((HSI_VALUE >> 1) * pllmul);
 8001304:	687b      	ldr	r3, [r7, #4]
 8001306:	4a0c      	ldr	r2, [pc, #48]	@ (8001338 <HAL_RCC_GetSysClockFreq+0xa4>)
 8001308:	fb02 f303 	mul.w	r3, r2, r3
 800130c:	617b      	str	r3, [r7, #20]
      }
      sysclockfreq = pllclk;
 800130e:	697b      	ldr	r3, [r7, #20]
 8001310:	613b      	str	r3, [r7, #16]
      break;
 8001312:	e002      	b.n	800131a <HAL_RCC_GetSysClockFreq+0x86>
    }
    case RCC_SYSCLKSOURCE_STATUS_HSI:  /* HSI used as system clock source */
    default: /* HSI used as system clock */
    {
      sysclockfreq = HSI_VALUE;
 8001314:	4b05      	ldr	r3, [pc, #20]	@ (800132c <HAL_RCC_GetSysClockFreq+0x98>)
 8001316:	613b      	str	r3, [r7, #16]
      break;
 8001318:	bf00      	nop
    }
  }
  return sysclockfreq;
 800131a:	693b      	ldr	r3, [r7, #16]
}
 800131c:	4618      	mov	r0, r3
 800131e:	371c      	adds	r7, #28
 8001320:	46bd      	mov	sp, r7
 8001322:	bc80      	pop	{r7}
 8001324:	4770      	bx	lr
 8001326:	bf00      	nop
 8001328:	40021000 	.word	0x40021000
 800132c:	007a1200 	.word	0x007a1200
 8001330:	08001fbc 	.word	0x08001fbc
 8001334:	08001fcc 	.word	0x08001fcc
 8001338:	003d0900 	.word	0x003d0900

0800133c <RCC_Delay>:
  * @brief  This function provides delay (in milliseconds) based on CPU cycles method.
  * @param  mdelay: specifies the delay time length, in milliseconds.
  * @retval None
  */
static void RCC_Delay(uint32_t mdelay)
{
 800133c:	b480      	push	{r7}
 800133e:	b085      	sub	sp, #20
 8001340:	af00      	add	r7, sp, #0
 8001342:	6078      	str	r0, [r7, #4]
  __IO uint32_t Delay = mdelay * (SystemCoreClock / 8U / 1000U);
 8001344:	4b0a      	ldr	r3, [pc, #40]	@ (8001370 <RCC_Delay+0x34>)
 8001346:	681b      	ldr	r3, [r3, #0]
 8001348:	4a0a      	ldr	r2, [pc, #40]	@ (8001374 <RCC_Delay+0x38>)
 800134a:	fba2 2303 	umull	r2, r3, r2, r3
 800134e:	0a5b      	lsrs	r3, r3, #9
 8001350:	687a      	ldr	r2, [r7, #4]
 8001352:	fb02 f303 	mul.w	r3, r2, r3
 8001356:	60fb      	str	r3, [r7, #12]
  do
  {
    __NOP();
 8001358:	bf00      	nop
  }
  while (Delay --);
 800135a:	68fb      	ldr	r3, [r7, #12]
 800135c:	1e5a      	subs	r2, r3, #1
 800135e:	60fa      	str	r2, [r7, #12]
 8001360:	2b00      	cmp	r3, #0
 8001362:	d1f9      	bne.n	8001358 <RCC_Delay+0x1c>
}
 8001364:	bf00      	nop
 8001366:	bf00      	nop
 8001368:	3714      	adds	r7, #20
 800136a:	46bd      	mov	sp, r7
 800136c:	bc80      	pop	{r7}
 800136e:	4770      	bx	lr
 8001370:	20000000 	.word	0x20000000
 8001374:	10624dd3 	.word	0x10624dd3

08001378 <HAL_TIM_Base_Init>:
  *         Ex: call @ref HAL_TIM_Base_DeInit() before HAL_TIM_Base_Init()
  * @param  htim TIM Base handle
  * @retval HAL status
  */
HAL_StatusTypeDef HAL_TIM_Base_Init(TIM_HandleTypeDef *htim)
{
 8001378:	b580      	push	{r7, lr}
 800137a:	b082      	sub	sp, #8
 800137c:	af00      	add	r7, sp, #0
 800137e:	6078      	str	r0, [r7, #4]
  /* Check the TIM handle allocation */
  if (htim == NULL)
 8001380:	687b      	ldr	r3, [r7, #4]
 8001382:	2b00      	cmp	r3, #0
 8001384:	d101      	bne.n	800138a <HAL_TIM_Base_Init+0x12>
  {
    return HAL_ERROR;
 8001386:	2301      	movs	r3, #1
 8001388:	e041      	b.n	800140e <HAL_TIM_Base_Init+0x96>
  assert_param(IS_TIM_COUNTER_MODE(htim->Init.CounterMode));
  assert_param(IS_TIM_CLOCKDIVISION_DIV(htim->Init.ClockDivision));
  assert_param(IS_TIM_PERIOD(htim->Init.Period));
  assert_param(IS_TIM_AUTORELOAD_PRELOAD(htim->Init.AutoReloadPreload));

  if (htim->State == HAL_TIM_STATE_RESET)
 800138a:	687b      	ldr	r3, [r7, #4]
 800138c:	f893 303d 	ldrb.w	r3, [r3, #61]	@ 0x3d
 8001390:	b2db      	uxtb	r3, r3
 8001392:	2b00      	cmp	r3, #0
 8001394:	d106      	bne.n	80013a4 <HAL_TIM_Base_Init+0x2c>
  {
    /* Allocate lock resource and initialize it */
    htim->Lock = HAL_UNLOCKED;
 8001396:	687b      	ldr	r3, [r7, #4]
 8001398:	2200      	movs	r2, #0
 800139a:	f883 203c 	strb.w	r2, [r3, #60]	@ 0x3c
    }
    /* Init the low level hardware : GPIO, CLOCK, NVIC */
    htim->Base_MspInitCallback(htim);
#else
    /* Init the low level hardware : GPIO, CLOCK, NVIC */
    HAL_TIM_Base_MspInit(htim);
 800139e:	6878      	ldr	r0, [r7, #4]
 80013a0:	f7ff f85c 	bl	800045c <HAL_TIM_Base_MspInit>
#endif /* USE_HAL_TIM_REGISTER_CALLBACKS */
  }

  /* Set the TIM state */
  htim->State = HAL_TIM_STATE_BUSY;
 80013a4:	687b      	ldr	r3, [r7, #4]
 80013a6:	2202      	movs	r2, #2
 80013a8:	f883 203d 	strb.w	r2, [r3, #61]	@ 0x3d

  /* Set the Time Base configuration */
  TIM_Base_SetConfig(htim->Instance, &htim->Init);
 80013ac:	687b      	ldr	r3, [r7, #4]
 80013ae:	681a      	ldr	r2, [r3, #0]
 80013b0:	687b      	ldr	r3, [r7, #4]
 80013b2:	3304      	adds	r3, #4
 80013b4:	4619      	mov	r1, r3
 80013b6:	4610      	mov	r0, r2
 80013b8:	f000 fab2 	bl	8001920 <TIM_Base_SetConfig>

  /* Initialize the DMA burst operation state */
  htim->DMABurstState = HAL_DMA_BURST_STATE_READY;
 80013bc:	687b      	ldr	r3, [r7, #4]
 80013be:	2201      	movs	r2, #1
 80013c0:	f883 2046 	strb.w	r2, [r3, #70]	@ 0x46

  /* Initialize the TIM channels state */
  TIM_CHANNEL_STATE_SET_ALL(htim, HAL_TIM_CHANNEL_STATE_READY);
 80013c4:	687b      	ldr	r3, [r7, #4]
 80013c6:	2201      	movs	r2, #1
 80013c8:	f883 203e 	strb.w	r2, [r3, #62]	@ 0x3e
 80013cc:	687b      	ldr	r3, [r7, #4]
 80013ce:	2201      	movs	r2, #1
 80013d0:	f883 203f 	strb.w	r2, [r3, #63]	@ 0x3f
 80013d4:	687b      	ldr	r3, [r7, #4]
 80013d6:	2201      	movs	r2, #1
 80013d8:	f883 2040 	strb.w	r2, [r3, #64]	@ 0x40
 80013dc:	687b      	ldr	r3, [r7, #4]
 80013de:	2201      	movs	r2, #1
 80013e0:	f883 2041 	strb.w	r2, [r3, #65]	@ 0x41
  TIM_CHANNEL_N_STATE_SET_ALL(htim, HAL_TIM_CHANNEL_STATE_READY);
 80013e4:	687b      	ldr	r3, [r7, #4]
 80013e6:	2201      	movs	r2, #1
 80013e8:	f883 2042 	strb.w	r2, [r3, #66]	@ 0x42
 80013ec:	687b      	ldr	r3, [r7, #4]
 80013ee:	2201      	movs	r2, #1
 80013f0:	f883 2043 	strb.w	r2, [r3, #67]	@ 0x43
 80013f4:	687b      	ldr	r3, [r7, #4]
 80013f6:	2201      	movs	r2, #1
 80013f8:	f883 2044 	strb.w	r2, [r3, #68]	@ 0x44
 80013fc:	687b      	ldr	r3, [r7, #4]
 80013fe:	2201      	movs	r2, #1
 8001400:	f883 2045 	strb.w	r2, [r3, #69]	@ 0x45

  /* Initialize the TIM state*/
  htim->State = HAL_TIM_STATE_READY;
 8001404:	687b      	ldr	r3, [r7, #4]
 8001406:	2201      	movs	r2, #1
 8001408:	f883 203d 	strb.w	r2, [r3, #61]	@ 0x3d

  return HAL_OK;
 800140c:	2300      	movs	r3, #0
}
 800140e:	4618      	mov	r0, r3
 8001410:	3708      	adds	r7, #8
 8001412:	46bd      	mov	sp, r7
 8001414:	bd80      	pop	{r7, pc}

08001416 <HAL_TIM_PWM_Init>:
  *         Ex: call @ref HAL_TIM_PWM_DeInit() before HAL_TIM_PWM_Init()
  * @param  htim TIM PWM handle
  * @retval HAL status
  */
HAL_StatusTypeDef HAL_TIM_PWM_Init(TIM_HandleTypeDef *htim)
{
 8001416:	b580      	push	{r7, lr}
 8001418:	b082      	sub	sp, #8
 800141a:	af00      	add	r7, sp, #0
 800141c:	6078      	str	r0, [r7, #4]
  /* Check the TIM handle allocation */
  if (htim == NULL)
 800141e:	687b      	ldr	r3, [r7, #4]
 8001420:	2b00      	cmp	r3, #0
 8001422:	d101      	bne.n	8001428 <HAL_TIM_PWM_Init+0x12>
  {
    return HAL_ERROR;
 8001424:	2301      	movs	r3, #1
 8001426:	e041      	b.n	80014ac <HAL_TIM_PWM_Init+0x96>
  assert_param(IS_TIM_COUNTER_MODE(htim->Init.CounterMode));
  assert_param(IS_TIM_CLOCKDIVISION_DIV(htim->Init.ClockDivision));
  assert_param(IS_TIM_PERIOD(htim->Init.Period));
  assert_param(IS_TIM_AUTORELOAD_PRELOAD(htim->Init.AutoReloadPreload));

  if (htim->State == HAL_TIM_STATE_RESET)
 8001428:	687b      	ldr	r3, [r7, #4]
 800142a:	f893 303d 	ldrb.w	r3, [r3, #61]	@ 0x3d
 800142e:	b2db      	uxtb	r3, r3
 8001430:	2b00      	cmp	r3, #0
 8001432:	d106      	bne.n	8001442 <HAL_TIM_PWM_Init+0x2c>
  {
    /* Allocate lock resource and initialize it */
    htim->Lock = HAL_UNLOCKED;
 8001434:	687b      	ldr	r3, [r7, #4]
 8001436:	2200      	movs	r2, #0
 8001438:	f883 203c 	strb.w	r2, [r3, #60]	@ 0x3c
    }
    /* Init the low level hardware : GPIO, CLOCK, NVIC */
    htim->PWM_MspInitCallback(htim);
#else
    /* Init the low level hardware : GPIO, CLOCK, NVIC and DMA */
    HAL_TIM_PWM_MspInit(htim);
 800143c:	6878      	ldr	r0, [r7, #4]
 800143e:	f000 f839 	bl	80014b4 <HAL_TIM_PWM_MspInit>
#endif /* USE_HAL_TIM_REGISTER_CALLBACKS */
  }

  /* Set the TIM state */
  htim->State = HAL_TIM_STATE_BUSY;
 8001442:	687b      	ldr	r3, [r7, #4]
 8001444:	2202      	movs	r2, #2
 8001446:	f883 203d 	strb.w	r2, [r3, #61]	@ 0x3d

  /* Init the base time for the PWM */
  TIM_Base_SetConfig(htim->Instance, &htim->Init);
 800144a:	687b      	ldr	r3, [r7, #4]
 800144c:	681a      	ldr	r2, [r3, #0]
 800144e:	687b      	ldr	r3, [r7, #4]
 8001450:	3304      	adds	r3, #4
 8001452:	4619      	mov	r1, r3
 8001454:	4610      	mov	r0, r2
 8001456:	f000 fa63 	bl	8001920 <TIM_Base_SetConfig>

  /* Initialize the DMA burst operation state */
  htim->DMABurstState = HAL_DMA_BURST_STATE_READY;
 800145a:	687b      	ldr	r3, [r7, #4]
 800145c:	2201      	movs	r2, #1
 800145e:	f883 2046 	strb.w	r2, [r3, #70]	@ 0x46

  /* Initialize the TIM channels state */
  TIM_CHANNEL_STATE_SET_ALL(htim, HAL_TIM_CHANNEL_STATE_READY);
 8001462:	687b      	ldr	r3, [r7, #4]
 8001464:	2201      	movs	r2, #1
 8001466:	f883 203e 	strb.w	r2, [r3, #62]	@ 0x3e
 800146a:	687b      	ldr	r3, [r7, #4]
 800146c:	2201      	movs	r2, #1
 800146e:	f883 203f 	strb.w	r2, [r3, #63]	@ 0x3f
 8001472:	687b      	ldr	r3, [r7, #4]
 8001474:	2201      	movs	r2, #1
 8001476:	f883 2040 	strb.w	r2, [r3, #64]	@ 0x40
 800147a:	687b      	ldr	r3, [r7, #4]
 800147c:	2201      	movs	r2, #1
 800147e:	f883 2041 	strb.w	r2, [r3, #65]	@ 0x41
  TIM_CHANNEL_N_STATE_SET_ALL(htim, HAL_TIM_CHANNEL_STATE_READY);
 8001482:	687b      	ldr	r3, [r7, #4]
 8001484:	2201      	movs	r2, #1
 8001486:	f883 2042 	strb.w	r2, [r3, #66]	@ 0x42
 800148a:	687b      	ldr	r3, [r7, #4]
 800148c:	2201      	movs	r2, #1
 800148e:	f883 2043 	strb.w	r2, [r3, #67]	@ 0x43
 8001492:	687b      	ldr	r3, [r7, #4]
 8001494:	2201      	movs	r2, #1
 8001496:	f883 2044 	strb.w	r2, [r3, #68]	@ 0x44
 800149a:	687b      	ldr	r3, [r7, #4]
 800149c:	2201      	movs	r2, #1
 800149e:	f883 2045 	strb.w	r2, [r3, #69]	@ 0x45

  /* Initialize the TIM state*/
  htim->State = HAL_TIM_STATE_READY;
 80014a2:	687b      	ldr	r3, [r7, #4]
 80014a4:	2201      	movs	r2, #1
 80014a6:	f883 203d 	strb.w	r2, [r3, #61]	@ 0x3d

  return HAL_OK;
 80014aa:	2300      	movs	r3, #0
}
 80014ac:	4618      	mov	r0, r3
 80014ae:	3708      	adds	r7, #8
 80014b0:	46bd      	mov	sp, r7
 80014b2:	bd80      	pop	{r7, pc}

080014b4 <HAL_TIM_PWM_MspInit>:
  * @brief  Initializes the TIM PWM MSP.
  * @param  htim TIM PWM handle
  * @retval None
  */
__weak void HAL_TIM_PWM_MspInit(TIM_HandleTypeDef *htim)
{
 80014b4:	b480      	push	{r7}
 80014b6:	b083      	sub	sp, #12
 80014b8:	af00      	add	r7, sp, #0
 80014ba:	6078      	str	r0, [r7, #4]
  UNUSED(htim);

  /* NOTE : This function should not be modified, when the callback is needed,
            the HAL_TIM_PWM_MspInit could be implemented in the user file
   */
}
 80014bc:	bf00      	nop
 80014be:	370c      	adds	r7, #12
 80014c0:	46bd      	mov	sp, r7
 80014c2:	bc80      	pop	{r7}
 80014c4:	4770      	bx	lr
	...

080014c8 <HAL_TIM_PWM_Start>:
  *            @arg TIM_CHANNEL_3: TIM Channel 3 selected
  *            @arg TIM_CHANNEL_4: TIM Channel 4 selected
  * @retval HAL status
  */
HAL_StatusTypeDef HAL_TIM_PWM_Start(TIM_HandleTypeDef *htim, uint32_t Channel)
{
 80014c8:	b580      	push	{r7, lr}
 80014ca:	b084      	sub	sp, #16
 80014cc:	af00      	add	r7, sp, #0
 80014ce:	6078      	str	r0, [r7, #4]
 80014d0:	6039      	str	r1, [r7, #0]

  /* Check the parameters */
  assert_param(IS_TIM_CCX_INSTANCE(htim->Instance, Channel));

  /* Check the TIM channel state */
  if (TIM_CHANNEL_STATE_GET(htim, Channel) != HAL_TIM_CHANNEL_STATE_READY)
 80014d2:	683b      	ldr	r3, [r7, #0]
 80014d4:	2b00      	cmp	r3, #0
 80014d6:	d109      	bne.n	80014ec <HAL_TIM_PWM_Start+0x24>
 80014d8:	687b      	ldr	r3, [r7, #4]
 80014da:	f893 303e 	ldrb.w	r3, [r3, #62]	@ 0x3e
 80014de:	b2db      	uxtb	r3, r3
 80014e0:	2b01      	cmp	r3, #1
 80014e2:	bf14      	ite	ne
 80014e4:	2301      	movne	r3, #1
 80014e6:	2300      	moveq	r3, #0
 80014e8:	b2db      	uxtb	r3, r3
 80014ea:	e022      	b.n	8001532 <HAL_TIM_PWM_Start+0x6a>
 80014ec:	683b      	ldr	r3, [r7, #0]
 80014ee:	2b04      	cmp	r3, #4
 80014f0:	d109      	bne.n	8001506 <HAL_TIM_PWM_Start+0x3e>
 80014f2:	687b      	ldr	r3, [r7, #4]
 80014f4:	f893 303f 	ldrb.w	r3, [r3, #63]	@ 0x3f
 80014f8:	b2db      	uxtb	r3, r3
 80014fa:	2b01      	cmp	r3, #1
 80014fc:	bf14      	ite	ne
 80014fe:	2301      	movne	r3, #1
 8001500:	2300      	moveq	r3, #0
 8001502:	b2db      	uxtb	r3, r3
 8001504:	e015      	b.n	8001532 <HAL_TIM_PWM_Start+0x6a>
 8001506:	683b      	ldr	r3, [r7, #0]
 8001508:	2b08      	cmp	r3, #8
 800150a:	d109      	bne.n	8001520 <HAL_TIM_PWM_Start+0x58>
 800150c:	687b      	ldr	r3, [r7, #4]
 800150e:	f893 3040 	ldrb.w	r3, [r3, #64]	@ 0x40
 8001512:	b2db      	uxtb	r3, r3
 8001514:	2b01      	cmp	r3, #1
 8001516:	bf14      	ite	ne
 8001518:	2301      	movne	r3, #1
 800151a:	2300      	moveq	r3, #0
 800151c:	b2db      	uxtb	r3, r3
 800151e:	e008      	b.n	8001532 <HAL_TIM_PWM_Start+0x6a>
 8001520:	687b      	ldr	r3, [r7, #4]
 8001522:	f893 3041 	ldrb.w	r3, [r3, #65]	@ 0x41
 8001526:	b2db      	uxtb	r3, r3
 8001528:	2b01      	cmp	r3, #1
 800152a:	bf14      	ite	ne
 800152c:	2301      	movne	r3, #1
 800152e:	2300      	moveq	r3, #0
 8001530:	b2db      	uxtb	r3, r3
 8001532:	2b00      	cmp	r3, #0
 8001534:	d001      	beq.n	800153a <HAL_TIM_PWM_Start+0x72>
  {
    return HAL_ERROR;
 8001536:	2301      	movs	r3, #1
 8001538:	e05e      	b.n	80015f8 <HAL_TIM_PWM_Start+0x130>
  }

  /* Set the TIM channel state */
  TIM_CHANNEL_STATE_SET(htim, Channel, HAL_TIM_CHANNEL_STATE_BUSY);
 800153a:	683b      	ldr	r3, [r7, #0]
 800153c:	2b00      	cmp	r3, #0
 800153e:	d104      	bne.n	800154a <HAL_TIM_PWM_Start+0x82>
 8001540:	687b      	ldr	r3, [r7, #4]
 8001542:	2202      	movs	r2, #2
 8001544:	f883 203e 	strb.w	r2, [r3, #62]	@ 0x3e
 8001548:	e013      	b.n	8001572 <HAL_TIM_PWM_Start+0xaa>
 800154a:	683b      	ldr	r3, [r7, #0]
 800154c:	2b04      	cmp	r3, #4
 800154e:	d104      	bne.n	800155a <HAL_TIM_PWM_Start+0x92>
 8001550:	687b      	ldr	r3, [r7, #4]
 8001552:	2202      	movs	r2, #2
 8001554:	f883 203f 	strb.w	r2, [r3, #63]	@ 0x3f
 8001558:	e00b      	b.n	8001572 <HAL_TIM_PWM_Start+0xaa>
 800155a:	683b      	ldr	r3, [r7, #0]
 800155c:	2b08      	cmp	r3, #8
 800155e:	d104      	bne.n	800156a <HAL_TIM_PWM_Start+0xa2>
 8001560:	687b      	ldr	r3, [r7, #4]
 8001562:	2202      	movs	r2, #2
 8001564:	f883 2040 	strb.w	r2, [r3, #64]	@ 0x40
 8001568:	e003      	b.n	8001572 <HAL_TIM_PWM_Start+0xaa>
 800156a:	687b      	ldr	r3, [r7, #4]
 800156c:	2202      	movs	r2, #2
 800156e:	f883 2041 	strb.w	r2, [r3, #65]	@ 0x41

  /* Enable the Capture compare channel */
  TIM_CCxChannelCmd(htim->Instance, Channel, TIM_CCx_ENABLE);
 8001572:	687b      	ldr	r3, [r7, #4]
 8001574:	681b      	ldr	r3, [r3, #0]
 8001576:	2201      	movs	r2, #1
 8001578:	6839      	ldr	r1, [r7, #0]
 800157a:	4618      	mov	r0, r3
 800157c:	f000 fc5c 	bl	8001e38 <TIM_CCxChannelCmd>

  if (IS_TIM_BREAK_INSTANCE(htim->Instance) != RESET)
 8001580:	687b      	ldr	r3, [r7, #4]
 8001582:	681b      	ldr	r3, [r3, #0]
 8001584:	4a1e      	ldr	r2, [pc, #120]	@ (8001600 <HAL_TIM_PWM_Start+0x138>)
 8001586:	4293      	cmp	r3, r2
 8001588:	d107      	bne.n	800159a <HAL_TIM_PWM_Start+0xd2>
  {
    /* Enable the main output */
    __HAL_TIM_MOE_ENABLE(htim);
 800158a:	687b      	ldr	r3, [r7, #4]
 800158c:	681b      	ldr	r3, [r3, #0]
 800158e:	6c5a      	ldr	r2, [r3, #68]	@ 0x44
 8001590:	687b      	ldr	r3, [r7, #4]
 8001592:	681b      	ldr	r3, [r3, #0]
 8001594:	f442 4200 	orr.w	r2, r2, #32768	@ 0x8000
 8001598:	645a      	str	r2, [r3, #68]	@ 0x44
  }

  /* Enable the Peripheral, except in trigger mode where enable is automatically done with trigger */
  if (IS_TIM_SLAVE_INSTANCE(htim->Instance))
 800159a:	687b      	ldr	r3, [r7, #4]
 800159c:	681b      	ldr	r3, [r3, #0]
 800159e:	4a18      	ldr	r2, [pc, #96]	@ (8001600 <HAL_TIM_PWM_Start+0x138>)
 80015a0:	4293      	cmp	r3, r2
 80015a2:	d00e      	beq.n	80015c2 <HAL_TIM_PWM_Start+0xfa>
 80015a4:	687b      	ldr	r3, [r7, #4]
 80015a6:	681b      	ldr	r3, [r3, #0]
 80015a8:	f1b3 4f80 	cmp.w	r3, #1073741824	@ 0x40000000
 80015ac:	d009      	beq.n	80015c2 <HAL_TIM_PWM_Start+0xfa>
 80015ae:	687b      	ldr	r3, [r7, #4]
 80015b0:	681b      	ldr	r3, [r3, #0]
 80015b2:	4a14      	ldr	r2, [pc, #80]	@ (8001604 <HAL_TIM_PWM_Start+0x13c>)
 80015b4:	4293      	cmp	r3, r2
 80015b6:	d004      	beq.n	80015c2 <HAL_TIM_PWM_Start+0xfa>
 80015b8:	687b      	ldr	r3, [r7, #4]
 80015ba:	681b      	ldr	r3, [r3, #0]
 80015bc:	4a12      	ldr	r2, [pc, #72]	@ (8001608 <HAL_TIM_PWM_Start+0x140>)
 80015be:	4293      	cmp	r3, r2
 80015c0:	d111      	bne.n	80015e6 <HAL_TIM_PWM_Start+0x11e>
  {
    tmpsmcr = htim->Instance->SMCR & TIM_SMCR_SMS;
 80015c2:	687b      	ldr	r3, [r7, #4]
 80015c4:	681b      	ldr	r3, [r3, #0]
 80015c6:	689b      	ldr	r3, [r3, #8]
 80015c8:	f003 0307 	and.w	r3, r3, #7
 80015cc:	60fb      	str	r3, [r7, #12]
    if (!IS_TIM_SLAVEMODE_TRIGGER_ENABLED(tmpsmcr))
 80015ce:	68fb      	ldr	r3, [r7, #12]
 80015d0:	2b06      	cmp	r3, #6
 80015d2:	d010      	beq.n	80015f6 <HAL_TIM_PWM_Start+0x12e>
    {
      __HAL_TIM_ENABLE(htim);
 80015d4:	687b      	ldr	r3, [r7, #4]
 80015d6:	681b      	ldr	r3, [r3, #0]
 80015d8:	681a      	ldr	r2, [r3, #0]
 80015da:	687b      	ldr	r3, [r7, #4]
 80015dc:	681b      	ldr	r3, [r3, #0]
 80015de:	f042 0201 	orr.w	r2, r2, #1
 80015e2:	601a      	str	r2, [r3, #0]
    if (!IS_TIM_SLAVEMODE_TRIGGER_ENABLED(tmpsmcr))
 80015e4:	e007      	b.n	80015f6 <HAL_TIM_PWM_Start+0x12e>
    }
  }
  else
  {
    __HAL_TIM_ENABLE(htim);
 80015e6:	687b      	ldr	r3, [r7, #4]
 80015e8:	681b      	ldr	r3, [r3, #0]
 80015ea:	681a      	ldr	r2, [r3, #0]
 80015ec:	687b      	ldr	r3, [r7, #4]
 80015ee:	681b      	ldr	r3, [r3, #0]
 80015f0:	f042 0201 	orr.w	r2, r2, #1
 80015f4:	601a      	str	r2, [r3, #0]
  }

  /* Return function status */
  return HAL_OK;
 80015f6:	2300      	movs	r3, #0
}
 80015f8:	4618      	mov	r0, r3
 80015fa:	3710      	adds	r7, #16
 80015fc:	46bd      	mov	sp, r7
 80015fe:	bd80      	pop	{r7, pc}
 8001600:	40012c00 	.word	0x40012c00
 8001604:	40000400 	.word	0x40000400
 8001608:	40000800 	.word	0x40000800

0800160c <HAL_TIM_PWM_ConfigChannel>:
  * @retval HAL status
  */
HAL_StatusTypeDef HAL_TIM_PWM_ConfigChannel(TIM_HandleTypeDef *htim,
                                            const TIM_OC_InitTypeDef *sConfig,
                                            uint32_t Channel)
{
 800160c:	b580      	push	{r7, lr}
 800160e:	b086      	sub	sp, #24
 8001610:	af00      	add	r7, sp, #0
 8001612:	60f8      	str	r0, [r7, #12]
 8001614:	60b9      	str	r1, [r7, #8]
 8001616:	607a      	str	r2, [r7, #4]
  HAL_StatusTypeDef status = HAL_OK;
 8001618:	2300      	movs	r3, #0
 800161a:	75fb      	strb	r3, [r7, #23]
  assert_param(IS_TIM_PWM_MODE(sConfig->OCMode));
  assert_param(IS_TIM_OC_POLARITY(sConfig->OCPolarity));
  assert_param(IS_TIM_FAST_STATE(sConfig->OCFastMode));

  /* Process Locked */
  __HAL_LOCK(htim);
 800161c:	68fb      	ldr	r3, [r7, #12]
 800161e:	f893 303c 	ldrb.w	r3, [r3, #60]	@ 0x3c
 8001622:	2b01      	cmp	r3, #1
 8001624:	d101      	bne.n	800162a <HAL_TIM_PWM_ConfigChannel+0x1e>
 8001626:	2302      	movs	r3, #2
 8001628:	e0ae      	b.n	8001788 <HAL_TIM_PWM_ConfigChannel+0x17c>
 800162a:	68fb      	ldr	r3, [r7, #12]
 800162c:	2201      	movs	r2, #1
 800162e:	f883 203c 	strb.w	r2, [r3, #60]	@ 0x3c

  switch (Channel)
 8001632:	687b      	ldr	r3, [r7, #4]
 8001634:	2b0c      	cmp	r3, #12
 8001636:	f200 809f 	bhi.w	8001778 <HAL_TIM_PWM_ConfigChannel+0x16c>
 800163a:	a201      	add	r2, pc, #4	@ (adr r2, 8001640 <HAL_TIM_PWM_ConfigChannel+0x34>)
 800163c:	f852 f023 	ldr.w	pc, [r2, r3, lsl #2]
 8001640:	08001675 	.word	0x08001675
 8001644:	08001779 	.word	0x08001779
 8001648:	08001779 	.word	0x08001779
 800164c:	08001779 	.word	0x08001779
 8001650:	080016b5 	.word	0x080016b5
 8001654:	08001779 	.word	0x08001779
 8001658:	08001779 	.word	0x08001779
 800165c:	08001779 	.word	0x08001779
 8001660:	080016f7 	.word	0x080016f7
 8001664:	08001779 	.word	0x08001779
 8001668:	08001779 	.word	0x08001779
 800166c:	08001779 	.word	0x08001779
 8001670:	08001737 	.word	0x08001737
    {
      /* Check the parameters */
      assert_param(IS_TIM_CC1_INSTANCE(htim->Instance));

      /* Configure the Channel 1 in PWM mode */
      TIM_OC1_SetConfig(htim->Instance, sConfig);
 8001674:	68fb      	ldr	r3, [r7, #12]
 8001676:	681b      	ldr	r3, [r3, #0]
 8001678:	68b9      	ldr	r1, [r7, #8]
 800167a:	4618      	mov	r0, r3
 800167c:	f000 f9be 	bl	80019fc <TIM_OC1_SetConfig>

      /* Set the Preload enable bit for channel1 */
      htim->Instance->CCMR1 |= TIM_CCMR1_OC1PE;
 8001680:	68fb      	ldr	r3, [r7, #12]
 8001682:	681b      	ldr	r3, [r3, #0]
 8001684:	699a      	ldr	r2, [r3, #24]
 8001686:	68fb      	ldr	r3, [r7, #12]
 8001688:	681b      	ldr	r3, [r3, #0]
 800168a:	f042 0208 	orr.w	r2, r2, #8
 800168e:	619a      	str	r2, [r3, #24]

      /* Configure the Output Fast mode */
      htim->Instance->CCMR1 &= ~TIM_CCMR1_OC1FE;
 8001690:	68fb      	ldr	r3, [r7, #12]
 8001692:	681b      	ldr	r3, [r3, #0]
 8001694:	699a      	ldr	r2, [r3, #24]
 8001696:	68fb      	ldr	r3, [r7, #12]
 8001698:	681b      	ldr	r3, [r3, #0]
 800169a:	f022 0204 	bic.w	r2, r2, #4
 800169e:	619a      	str	r2, [r3, #24]
      htim->Instance->CCMR1 |= sConfig->OCFastMode;
 80016a0:	68fb      	ldr	r3, [r7, #12]
 80016a2:	681b      	ldr	r3, [r3, #0]
 80016a4:	6999      	ldr	r1, [r3, #24]
 80016a6:	68bb      	ldr	r3, [r7, #8]
 80016a8:	691a      	ldr	r2, [r3, #16]
 80016aa:	68fb      	ldr	r3, [r7, #12]
 80016ac:	681b      	ldr	r3, [r3, #0]
 80016ae:	430a      	orrs	r2, r1
 80016b0:	619a      	str	r2, [r3, #24]
      break;
 80016b2:	e064      	b.n	800177e <HAL_TIM_PWM_ConfigChannel+0x172>
    {
      /* Check the parameters */
      assert_param(IS_TIM_CC2_INSTANCE(htim->Instance));

      /* Configure the Channel 2 in PWM mode */
      TIM_OC2_SetConfig(htim->Instance, sConfig);
 80016b4:	68fb      	ldr	r3, [r7, #12]
 80016b6:	681b      	ldr	r3, [r3, #0]
 80016b8:	68b9      	ldr	r1, [r7, #8]
 80016ba:	4618      	mov	r0, r3
 80016bc:	f000 fa04 	bl	8001ac8 <TIM_OC2_SetConfig>

      /* Set the Preload enable bit for channel2 */
      htim->Instance->CCMR1 |= TIM_CCMR1_OC2PE;
 80016c0:	68fb      	ldr	r3, [r7, #12]
 80016c2:	681b      	ldr	r3, [r3, #0]
 80016c4:	699a      	ldr	r2, [r3, #24]
 80016c6:	68fb      	ldr	r3, [r7, #12]
 80016c8:	681b      	ldr	r3, [r3, #0]
 80016ca:	f442 6200 	orr.w	r2, r2, #2048	@ 0x800
 80016ce:	619a      	str	r2, [r3, #24]

      /* Configure the Output Fast mode */
      htim->Instance->CCMR1 &= ~TIM_CCMR1_OC2FE;
 80016d0:	68fb      	ldr	r3, [r7, #12]
 80016d2:	681b      	ldr	r3, [r3, #0]
 80016d4:	699a      	ldr	r2, [r3, #24]
 80016d6:	68fb      	ldr	r3, [r7, #12]
 80016d8:	681b      	ldr	r3, [r3, #0]
 80016da:	f422 6280 	bic.w	r2, r2, #1024	@ 0x400
 80016de:	619a      	str	r2, [r3, #24]
      htim->Instance->CCMR1 |= sConfig->OCFastMode << 8U;
 80016e0:	68fb      	ldr	r3, [r7, #12]
 80016e2:	681b      	ldr	r3, [r3, #0]
 80016e4:	6999      	ldr	r1, [r3, #24]
 80016e6:	68bb      	ldr	r3, [r7, #8]
 80016e8:	691b      	ldr	r3, [r3, #16]
 80016ea:	021a      	lsls	r2, r3, #8
 80016ec:	68fb      	ldr	r3, [r7, #12]
 80016ee:	681b      	ldr	r3, [r3, #0]
 80016f0:	430a      	orrs	r2, r1
 80016f2:	619a      	str	r2, [r3, #24]
      break;
 80016f4:	e043      	b.n	800177e <HAL_TIM_PWM_ConfigChannel+0x172>
    {
      /* Check the parameters */
      assert_param(IS_TIM_CC3_INSTANCE(htim->Instance));

      /* Configure the Channel 3 in PWM mode */
      TIM_OC3_SetConfig(htim->Instance, sConfig);
 80016f6:	68fb      	ldr	r3, [r7, #12]
 80016f8:	681b      	ldr	r3, [r3, #0]
 80016fa:	68b9      	ldr	r1, [r7, #8]
 80016fc:	4618      	mov	r0, r3
 80016fe:	f000 fa4d 	bl	8001b9c <TIM_OC3_SetConfig>

      /* Set the Preload enable bit for channel3 */
      htim->Instance->CCMR2 |= TIM_CCMR2_OC3PE;
 8001702:	68fb      	ldr	r3, [r7, #12]
 8001704:	681b      	ldr	r3, [r3, #0]
 8001706:	69da      	ldr	r2, [r3, #28]
 8001708:	68fb      	ldr	r3, [r7, #12]
 800170a:	681b      	ldr	r3, [r3, #0]
 800170c:	f042 0208 	orr.w	r2, r2, #8
 8001710:	61da      	str	r2, [r3, #28]

      /* Configure the Output Fast mode */
      htim->Instance->CCMR2 &= ~TIM_CCMR2_OC3FE;
 8001712:	68fb      	ldr	r3, [r7, #12]
 8001714:	681b      	ldr	r3, [r3, #0]
 8001716:	69da      	ldr	r2, [r3, #28]
 8001718:	68fb      	ldr	r3, [r7, #12]
 800171a:	681b      	ldr	r3, [r3, #0]
 800171c:	f022 0204 	bic.w	r2, r2, #4
 8001720:	61da      	str	r2, [r3, #28]
      htim->Instance->CCMR2 |= sConfig->OCFastMode;
 8001722:	68fb      	ldr	r3, [r7, #12]
 8001724:	681b      	ldr	r3, [r3, #0]
 8001726:	69d9      	ldr	r1, [r3, #28]
 8001728:	68bb      	ldr	r3, [r7, #8]
 800172a:	691a      	ldr	r2, [r3, #16]
 800172c:	68fb      	ldr	r3, [r7, #12]
 800172e:	681b      	ldr	r3, [r3, #0]
 8001730:	430a      	orrs	r2, r1
 8001732:	61da      	str	r2, [r3, #28]
      break;
 8001734:	e023      	b.n	800177e <HAL_TIM_PWM_ConfigChannel+0x172>
    {
      /* Check the parameters */
      assert_param(IS_TIM_CC4_INSTANCE(htim->Instance));

      /* Configure the Channel 4 in PWM mode */
      TIM_OC4_SetConfig(htim->Instance, sConfig);
 8001736:	68fb      	ldr	r3, [r7, #12]
 8001738:	681b      	ldr	r3, [r3, #0]
 800173a:	68b9      	ldr	r1, [r7, #8]
 800173c:	4618      	mov	r0, r3
 800173e:	f000 fa97 	bl	8001c70 <TIM_OC4_SetConfig>

      /* Set the Preload enable bit for channel4 */
      htim->Instance->CCMR2 |= TIM_CCMR2_OC4PE;
 8001742:	68fb      	ldr	r3, [r7, #12]
 8001744:	681b      	ldr	r3, [r3, #0]
 8001746:	69da      	ldr	r2, [r3, #28]
 8001748:	68fb      	ldr	r3, [r7, #12]
 800174a:	681b      	ldr	r3, [r3, #0]
 800174c:	f442 6200 	orr.w	r2, r2, #2048	@ 0x800
 8001750:	61da      	str	r2, [r3, #28]

      /* Configure the Output Fast mode */
      htim->Instance->CCMR2 &= ~TIM_CCMR2_OC4FE;
 8001752:	68fb      	ldr	r3, [r7, #12]
 8001754:	681b      	ldr	r3, [r3, #0]
 8001756:	69da      	ldr	r2, [r3, #28]
 8001758:	68fb      	ldr	r3, [r7, #12]
 800175a:	681b      	ldr	r3, [r3, #0]
 800175c:	f422 6280 	bic.w	r2, r2, #1024	@ 0x400
 8001760:	61da      	str	r2, [r3, #28]
      htim->Instance->CCMR2 |= sConfig->OCFastMode << 8U;
 8001762:	68fb      	ldr	r3, [r7, #12]
 8001764:	681b      	ldr	r3, [r3, #0]
 8001766:	69d9      	ldr	r1, [r3, #28]
 8001768:	68bb      	ldr	r3, [r7, #8]
 800176a:	691b      	ldr	r3, [r3, #16]
 800176c:	021a      	lsls	r2, r3, #8
 800176e:	68fb      	ldr	r3, [r7, #12]
 8001770:	681b      	ldr	r3, [r3, #0]
 8001772:	430a      	orrs	r2, r1
 8001774:	61da      	str	r2, [r3, #28]
      break;
 8001776:	e002      	b.n	800177e <HAL_TIM_PWM_ConfigChannel+0x172>
    }

    default:
      status = HAL_ERROR;
 8001778:	2301      	movs	r3, #1
 800177a:	75fb      	strb	r3, [r7, #23]
      break;
 800177c:	bf00      	nop
  }

  __HAL_UNLOCK(htim);
 800177e:	68fb      	ldr	r3, [r7, #12]
 8001780:	2200      	movs	r2, #0
 8001782:	f883 203c 	strb.w	r2, [r3, #60]	@ 0x3c

  return status;
 8001786:	7dfb      	ldrb	r3, [r7, #23]
}
 8001788:	4618      	mov	r0, r3
 800178a:	3718      	adds	r7, #24
 800178c:	46bd      	mov	sp, r7
 800178e:	bd80      	pop	{r7, pc}

08001790 <HAL_TIM_ConfigClockSource>:
  * @param  sClockSourceConfig pointer to a TIM_ClockConfigTypeDef structure that
  *         contains the clock source information for the TIM peripheral.
  * @retval HAL status
  */
HAL_StatusTypeDef HAL_TIM_ConfigClockSource(TIM_HandleTypeDef *htim, const TIM_ClockConfigTypeDef *sClockSourceConfig)
{
 8001790:	b580      	push	{r7, lr}
 8001792:	b084      	sub	sp, #16
 8001794:	af00      	add	r7, sp, #0
 8001796:	6078      	str	r0, [r7, #4]
 8001798:	6039      	str	r1, [r7, #0]
  HAL_StatusTypeDef status = HAL_OK;
 800179a:	2300      	movs	r3, #0
 800179c:	73fb      	strb	r3, [r7, #15]
  uint32_t tmpsmcr;

  /* Process Locked */
  __HAL_LOCK(htim);
 800179e:	687b      	ldr	r3, [r7, #4]
 80017a0:	f893 303c 	ldrb.w	r3, [r3, #60]	@ 0x3c
 80017a4:	2b01      	cmp	r3, #1
 80017a6:	d101      	bne.n	80017ac <HAL_TIM_ConfigClockSource+0x1c>
 80017a8:	2302      	movs	r3, #2
 80017aa:	e0b4      	b.n	8001916 <HAL_TIM_ConfigClockSource+0x186>
 80017ac:	687b      	ldr	r3, [r7, #4]
 80017ae:	2201      	movs	r2, #1
 80017b0:	f883 203c 	strb.w	r2, [r3, #60]	@ 0x3c

  htim->State = HAL_TIM_STATE_BUSY;
 80017b4:	687b      	ldr	r3, [r7, #4]
 80017b6:	2202      	movs	r2, #2
 80017b8:	f883 203d 	strb.w	r2, [r3, #61]	@ 0x3d

  /* Check the parameters */
  assert_param(IS_TIM_CLOCKSOURCE(sClockSourceConfig->ClockSource));

  /* Reset the SMS, TS, ECE, ETPS and ETRF bits */
  tmpsmcr = htim->Instance->SMCR;
 80017bc:	687b      	ldr	r3, [r7, #4]
 80017be:	681b      	ldr	r3, [r3, #0]
 80017c0:	689b      	ldr	r3, [r3, #8]
 80017c2:	60bb      	str	r3, [r7, #8]
  tmpsmcr &= ~(TIM_SMCR_SMS | TIM_SMCR_TS);
 80017c4:	68bb      	ldr	r3, [r7, #8]
 80017c6:	f023 0377 	bic.w	r3, r3, #119	@ 0x77
 80017ca:	60bb      	str	r3, [r7, #8]
  tmpsmcr &= ~(TIM_SMCR_ETF | TIM_SMCR_ETPS | TIM_SMCR_ECE | TIM_SMCR_ETP);
 80017cc:	68bb      	ldr	r3, [r7, #8]
 80017ce:	f423 437f 	bic.w	r3, r3, #65280	@ 0xff00
 80017d2:	60bb      	str	r3, [r7, #8]
  htim->Instance->SMCR = tmpsmcr;
 80017d4:	687b      	ldr	r3, [r7, #4]
 80017d6:	681b      	ldr	r3, [r3, #0]
 80017d8:	68ba      	ldr	r2, [r7, #8]
 80017da:	609a      	str	r2, [r3, #8]

  switch (sClockSourceConfig->ClockSource)
 80017dc:	683b      	ldr	r3, [r7, #0]
 80017de:	681b      	ldr	r3, [r3, #0]
 80017e0:	f5b3 5f00 	cmp.w	r3, #8192	@ 0x2000
 80017e4:	d03e      	beq.n	8001864 <HAL_TIM_ConfigClockSource+0xd4>
 80017e6:	f5b3 5f00 	cmp.w	r3, #8192	@ 0x2000
 80017ea:	f200 8087 	bhi.w	80018fc <HAL_TIM_ConfigClockSource+0x16c>
 80017ee:	f5b3 5f80 	cmp.w	r3, #4096	@ 0x1000
 80017f2:	f000 8086 	beq.w	8001902 <HAL_TIM_ConfigClockSource+0x172>
 80017f6:	f5b3 5f80 	cmp.w	r3, #4096	@ 0x1000
 80017fa:	d87f      	bhi.n	80018fc <HAL_TIM_ConfigClockSource+0x16c>
 80017fc:	2b70      	cmp	r3, #112	@ 0x70
 80017fe:	d01a      	beq.n	8001836 <HAL_TIM_ConfigClockSource+0xa6>
 8001800:	2b70      	cmp	r3, #112	@ 0x70
 8001802:	d87b      	bhi.n	80018fc <HAL_TIM_ConfigClockSource+0x16c>
 8001804:	2b60      	cmp	r3, #96	@ 0x60
 8001806:	d050      	beq.n	80018aa <HAL_TIM_ConfigClockSource+0x11a>
 8001808:	2b60      	cmp	r3, #96	@ 0x60
 800180a:	d877      	bhi.n	80018fc <HAL_TIM_ConfigClockSource+0x16c>
 800180c:	2b50      	cmp	r3, #80	@ 0x50
 800180e:	d03c      	beq.n	800188a <HAL_TIM_ConfigClockSource+0xfa>
 8001810:	2b50      	cmp	r3, #80	@ 0x50
 8001812:	d873      	bhi.n	80018fc <HAL_TIM_ConfigClockSource+0x16c>
 8001814:	2b40      	cmp	r3, #64	@ 0x40
 8001816:	d058      	beq.n	80018ca <HAL_TIM_ConfigClockSource+0x13a>
 8001818:	2b40      	cmp	r3, #64	@ 0x40
 800181a:	d86f      	bhi.n	80018fc <HAL_TIM_ConfigClockSource+0x16c>
 800181c:	2b30      	cmp	r3, #48	@ 0x30
 800181e:	d064      	beq.n	80018ea <HAL_TIM_ConfigClockSource+0x15a>
 8001820:	2b30      	cmp	r3, #48	@ 0x30
 8001822:	d86b      	bhi.n	80018fc <HAL_TIM_ConfigClockSource+0x16c>
 8001824:	2b20      	cmp	r3, #32
 8001826:	d060      	beq.n	80018ea <HAL_TIM_ConfigClockSource+0x15a>
 8001828:	2b20      	cmp	r3, #32
 800182a:	d867      	bhi.n	80018fc <HAL_TIM_ConfigClockSource+0x16c>
 800182c:	2b00      	cmp	r3, #0
 800182e:	d05c      	beq.n	80018ea <HAL_TIM_ConfigClockSource+0x15a>
 8001830:	2b10      	cmp	r3, #16
 8001832:	d05a      	beq.n	80018ea <HAL_TIM_ConfigClockSource+0x15a>
 8001834:	e062      	b.n	80018fc <HAL_TIM_ConfigClockSource+0x16c>
      assert_param(IS_TIM_CLOCKPRESCALER(sClockSourceConfig->ClockPrescaler));
      assert_param(IS_TIM_CLOCKPOLARITY(sClockSourceConfig->ClockPolarity));
      assert_param(IS_TIM_CLOCKFILTER(sClockSourceConfig->ClockFilter));

      /* Configure the ETR Clock source */
      TIM_ETR_SetConfig(htim->Instance,
 8001836:	687b      	ldr	r3, [r7, #4]
 8001838:	6818      	ldr	r0, [r3, #0]
                        sClockSourceConfig->ClockPrescaler,
 800183a:	683b      	ldr	r3, [r7, #0]
 800183c:	6899      	ldr	r1, [r3, #8]
                        sClockSourceConfig->ClockPolarity,
 800183e:	683b      	ldr	r3, [r7, #0]
 8001840:	685a      	ldr	r2, [r3, #4]
                        sClockSourceConfig->ClockFilter);
 8001842:	683b      	ldr	r3, [r7, #0]
 8001844:	68db      	ldr	r3, [r3, #12]
      TIM_ETR_SetConfig(htim->Instance,
 8001846:	f000 fad8 	bl	8001dfa <TIM_ETR_SetConfig>

      /* Select the External clock mode1 and the ETRF trigger */
      tmpsmcr = htim->Instance->SMCR;
 800184a:	687b      	ldr	r3, [r7, #4]
 800184c:	681b      	ldr	r3, [r3, #0]
 800184e:	689b      	ldr	r3, [r3, #8]
 8001850:	60bb      	str	r3, [r7, #8]
      tmpsmcr |= (TIM_SLAVEMODE_EXTERNAL1 | TIM_CLOCKSOURCE_ETRMODE1);
 8001852:	68bb      	ldr	r3, [r7, #8]
 8001854:	f043 0377 	orr.w	r3, r3, #119	@ 0x77
 8001858:	60bb      	str	r3, [r7, #8]
      /* Write to TIMx SMCR */
      htim->Instance->SMCR = tmpsmcr;
 800185a:	687b      	ldr	r3, [r7, #4]
 800185c:	681b      	ldr	r3, [r3, #0]
 800185e:	68ba      	ldr	r2, [r7, #8]
 8001860:	609a      	str	r2, [r3, #8]
      break;
 8001862:	e04f      	b.n	8001904 <HAL_TIM_ConfigClockSource+0x174>
      assert_param(IS_TIM_CLOCKPRESCALER(sClockSourceConfig->ClockPrescaler));
      assert_param(IS_TIM_CLOCKPOLARITY(sClockSourceConfig->ClockPolarity));
      assert_param(IS_TIM_CLOCKFILTER(sClockSourceConfig->ClockFilter));

      /* Configure the ETR Clock source */
      TIM_ETR_SetConfig(htim->Instance,
 8001864:	687b      	ldr	r3, [r7, #4]
 8001866:	6818      	ldr	r0, [r3, #0]
                        sClockSourceConfig->ClockPrescaler,
 8001868:	683b      	ldr	r3, [r7, #0]
 800186a:	6899      	ldr	r1, [r3, #8]
                        sClockSourceConfig->ClockPolarity,
 800186c:	683b      	ldr	r3, [r7, #0]
 800186e:	685a      	ldr	r2, [r3, #4]
                        sClockSourceConfig->ClockFilter);
 8001870:	683b      	ldr	r3, [r7, #0]
 8001872:	68db      	ldr	r3, [r3, #12]
      TIM_ETR_SetConfig(htim->Instance,
 8001874:	f000 fac1 	bl	8001dfa <TIM_ETR_SetConfig>
      /* Enable the External clock mode2 */
      htim->Instance->SMCR |= TIM_SMCR_ECE;
 8001878:	687b      	ldr	r3, [r7, #4]
 800187a:	681b      	ldr	r3, [r3, #0]
 800187c:	689a      	ldr	r2, [r3, #8]
 800187e:	687b      	ldr	r3, [r7, #4]
 8001880:	681b      	ldr	r3, [r3, #0]
 8001882:	f442 4280 	orr.w	r2, r2, #16384	@ 0x4000
 8001886:	609a      	str	r2, [r3, #8]
      break;
 8001888:	e03c      	b.n	8001904 <HAL_TIM_ConfigClockSource+0x174>

      /* Check TI1 input conditioning related parameters */
      assert_param(IS_TIM_CLOCKPOLARITY(sClockSourceConfig->ClockPolarity));
      assert_param(IS_TIM_CLOCKFILTER(sClockSourceConfig->ClockFilter));

      TIM_TI1_ConfigInputStage(htim->Instance,
 800188a:	687b      	ldr	r3, [r7, #4]
 800188c:	6818      	ldr	r0, [r3, #0]
                               sClockSourceConfig->ClockPolarity,
 800188e:	683b      	ldr	r3, [r7, #0]
 8001890:	6859      	ldr	r1, [r3, #4]
                               sClockSourceConfig->ClockFilter);
 8001892:	683b      	ldr	r3, [r7, #0]
 8001894:	68db      	ldr	r3, [r3, #12]
      TIM_TI1_ConfigInputStage(htim->Instance,
 8001896:	461a      	mov	r2, r3
 8001898:	f000 fa38 	bl	8001d0c <TIM_TI1_ConfigInputStage>
      TIM_ITRx_SetConfig(htim->Instance, TIM_CLOCKSOURCE_TI1);
 800189c:	687b      	ldr	r3, [r7, #4]
 800189e:	681b      	ldr	r3, [r3, #0]
 80018a0:	2150      	movs	r1, #80	@ 0x50
 80018a2:	4618      	mov	r0, r3
 80018a4:	f000 fa8f 	bl	8001dc6 <TIM_ITRx_SetConfig>
      break;
 80018a8:	e02c      	b.n	8001904 <HAL_TIM_ConfigClockSource+0x174>

      /* Check TI2 input conditioning related parameters */
      assert_param(IS_TIM_CLOCKPOLARITY(sClockSourceConfig->ClockPolarity));
      assert_param(IS_TIM_CLOCKFILTER(sClockSourceConfig->ClockFilter));

      TIM_TI2_ConfigInputStage(htim->Instance,
 80018aa:	687b      	ldr	r3, [r7, #4]
 80018ac:	6818      	ldr	r0, [r3, #0]
                               sClockSourceConfig->ClockPolarity,
 80018ae:	683b      	ldr	r3, [r7, #0]
 80018b0:	6859      	ldr	r1, [r3, #4]
                               sClockSourceConfig->ClockFilter);
 80018b2:	683b      	ldr	r3, [r7, #0]
 80018b4:	68db      	ldr	r3, [r3, #12]
      TIM_TI2_ConfigInputStage(htim->Instance,
 80018b6:	461a      	mov	r2, r3
 80018b8:	f000 fa56 	bl	8001d68 <TIM_TI2_ConfigInputStage>
      TIM_ITRx_SetConfig(htim->Instance, TIM_CLOCKSOURCE_TI2);
 80018bc:	687b      	ldr	r3, [r7, #4]
 80018be:	681b      	ldr	r3, [r3, #0]
 80018c0:	2160      	movs	r1, #96	@ 0x60
 80018c2:	4618      	mov	r0, r3
 80018c4:	f000 fa7f 	bl	8001dc6 <TIM_ITRx_SetConfig>
      break;
 80018c8:	e01c      	b.n	8001904 <HAL_TIM_ConfigClockSource+0x174>

      /* Check TI1 input conditioning related parameters */
      assert_param(IS_TIM_CLOCKPOLARITY(sClockSourceConfig->ClockPolarity));
      assert_param(IS_TIM_CLOCKFILTER(sClockSourceConfig->ClockFilter));

      TIM_TI1_ConfigInputStage(htim->Instance,
 80018ca:	687b      	ldr	r3, [r7, #4]
 80018cc:	6818      	ldr	r0, [r3, #0]
                               sClockSourceConfig->ClockPolarity,
 80018ce:	683b      	ldr	r3, [r7, #0]
 80018d0:	6859      	ldr	r1, [r3, #4]
                               sClockSourceConfig->ClockFilter);
 80018d2:	683b      	ldr	r3, [r7, #0]
 80018d4:	68db      	ldr	r3, [r3, #12]
      TIM_TI1_ConfigInputStage(htim->Instance,
 80018d6:	461a      	mov	r2, r3
 80018d8:	f000 fa18 	bl	8001d0c <TIM_TI1_ConfigInputStage>
      TIM_ITRx_SetConfig(htim->Instance, TIM_CLOCKSOURCE_TI1ED);
 80018dc:	687b      	ldr	r3, [r7, #4]
 80018de:	681b      	ldr	r3, [r3, #0]
 80018e0:	2140      	movs	r1, #64	@ 0x40
 80018e2:	4618      	mov	r0, r3
 80018e4:	f000 fa6f 	bl	8001dc6 <TIM_ITRx_SetConfig>
      break;
 80018e8:	e00c      	b.n	8001904 <HAL_TIM_ConfigClockSource+0x174>
    case TIM_CLOCKSOURCE_ITR3:
    {
      /* Check whether or not the timer instance supports internal trigger input */
      assert_param(IS_TIM_CLOCKSOURCE_ITRX_INSTANCE(htim->Instance));

      TIM_ITRx_SetConfig(htim->Instance, sClockSourceConfig->ClockSource);
 80018ea:	687b      	ldr	r3, [r7, #4]
 80018ec:	681a      	ldr	r2, [r3, #0]
 80018ee:	683b      	ldr	r3, [r7, #0]
 80018f0:	681b      	ldr	r3, [r3, #0]
 80018f2:	4619      	mov	r1, r3
 80018f4:	4610      	mov	r0, r2
 80018f6:	f000 fa66 	bl	8001dc6 <TIM_ITRx_SetConfig>
      break;
 80018fa:	e003      	b.n	8001904 <HAL_TIM_ConfigClockSource+0x174>
    }

    default:
      status = HAL_ERROR;
 80018fc:	2301      	movs	r3, #1
 80018fe:	73fb      	strb	r3, [r7, #15]
      break;
 8001900:	e000      	b.n	8001904 <HAL_TIM_ConfigClockSource+0x174>
      break;
 8001902:	bf00      	nop
  }
  htim->State = HAL_TIM_STATE_READY;
 8001904:	687b      	ldr	r3, [r7, #4]
 8001906:	2201      	movs	r2, #1
 8001908:	f883 203d 	strb.w	r2, [r3, #61]	@ 0x3d

  __HAL_UNLOCK(htim);
 800190c:	687b      	ldr	r3, [r7, #4]
 800190e:	2200      	movs	r2, #0
 8001910:	f883 203c 	strb.w	r2, [r3, #60]	@ 0x3c

  return status;
 8001914:	7bfb      	ldrb	r3, [r7, #15]
}
 8001916:	4618      	mov	r0, r3
 8001918:	3710      	adds	r7, #16
 800191a:	46bd      	mov	sp, r7
 800191c:	bd80      	pop	{r7, pc}
	...

08001920 <TIM_Base_SetConfig>:
  * @param  TIMx TIM peripheral
  * @param  Structure TIM Base configuration structure
  * @retval None
  */
void TIM_Base_SetConfig(TIM_TypeDef *TIMx, const TIM_Base_InitTypeDef *Structure)
{
 8001920:	b480      	push	{r7}
 8001922:	b085      	sub	sp, #20
 8001924:	af00      	add	r7, sp, #0
 8001926:	6078      	str	r0, [r7, #4]
 8001928:	6039      	str	r1, [r7, #0]
  uint32_t tmpcr1;
  tmpcr1 = TIMx->CR1;
 800192a:	687b      	ldr	r3, [r7, #4]
 800192c:	681b      	ldr	r3, [r3, #0]
 800192e:	60fb      	str	r3, [r7, #12]

  /* Set TIM Time Base Unit parameters ---------------------------------------*/
  if (IS_TIM_COUNTER_MODE_SELECT_INSTANCE(TIMx))
 8001930:	687b      	ldr	r3, [r7, #4]
 8001932:	4a2f      	ldr	r2, [pc, #188]	@ (80019f0 <TIM_Base_SetConfig+0xd0>)
 8001934:	4293      	cmp	r3, r2
 8001936:	d00b      	beq.n	8001950 <TIM_Base_SetConfig+0x30>
 8001938:	687b      	ldr	r3, [r7, #4]
 800193a:	f1b3 4f80 	cmp.w	r3, #1073741824	@ 0x40000000
 800193e:	d007      	beq.n	8001950 <TIM_Base_SetConfig+0x30>
 8001940:	687b      	ldr	r3, [r7, #4]
 8001942:	4a2c      	ldr	r2, [pc, #176]	@ (80019f4 <TIM_Base_SetConfig+0xd4>)
 8001944:	4293      	cmp	r3, r2
 8001946:	d003      	beq.n	8001950 <TIM_Base_SetConfig+0x30>
 8001948:	687b      	ldr	r3, [r7, #4]
 800194a:	4a2b      	ldr	r2, [pc, #172]	@ (80019f8 <TIM_Base_SetConfig+0xd8>)
 800194c:	4293      	cmp	r3, r2
 800194e:	d108      	bne.n	8001962 <TIM_Base_SetConfig+0x42>
  {
    /* Select the Counter Mode */
    tmpcr1 &= ~(TIM_CR1_DIR | TIM_CR1_CMS);
 8001950:	68fb      	ldr	r3, [r7, #12]
 8001952:	f023 0370 	bic.w	r3, r3, #112	@ 0x70
 8001956:	60fb      	str	r3, [r7, #12]
    tmpcr1 |= Structure->CounterMode;
 8001958:	683b      	ldr	r3, [r7, #0]
 800195a:	685b      	ldr	r3, [r3, #4]
 800195c:	68fa      	ldr	r2, [r7, #12]
 800195e:	4313      	orrs	r3, r2
 8001960:	60fb      	str	r3, [r7, #12]
  }

  if (IS_TIM_CLOCK_DIVISION_INSTANCE(TIMx))
 8001962:	687b      	ldr	r3, [r7, #4]
 8001964:	4a22      	ldr	r2, [pc, #136]	@ (80019f0 <TIM_Base_SetConfig+0xd0>)
 8001966:	4293      	cmp	r3, r2
 8001968:	d00b      	beq.n	8001982 <TIM_Base_SetConfig+0x62>
 800196a:	687b      	ldr	r3, [r7, #4]
 800196c:	f1b3 4f80 	cmp.w	r3, #1073741824	@ 0x40000000
 8001970:	d007      	beq.n	8001982 <TIM_Base_SetConfig+0x62>
 8001972:	687b      	ldr	r3, [r7, #4]
 8001974:	4a1f      	ldr	r2, [pc, #124]	@ (80019f4 <TIM_Base_SetConfig+0xd4>)
 8001976:	4293      	cmp	r3, r2
 8001978:	d003      	beq.n	8001982 <TIM_Base_SetConfig+0x62>
 800197a:	687b      	ldr	r3, [r7, #4]
 800197c:	4a1e      	ldr	r2, [pc, #120]	@ (80019f8 <TIM_Base_SetConfig+0xd8>)
 800197e:	4293      	cmp	r3, r2
 8001980:	d108      	bne.n	8001994 <TIM_Base_SetConfig+0x74>
  {
    /* Set the clock division */
    tmpcr1 &= ~TIM_CR1_CKD;
 8001982:	68fb      	ldr	r3, [r7, #12]
 8001984:	f423 7340 	bic.w	r3, r3, #768	@ 0x300
 8001988:	60fb      	str	r3, [r7, #12]
    tmpcr1 |= (uint32_t)Structure->ClockDivision;
 800198a:	683b      	ldr	r3, [r7, #0]
 800198c:	68db      	ldr	r3, [r3, #12]
 800198e:	68fa      	ldr	r2, [r7, #12]
 8001990:	4313      	orrs	r3, r2
 8001992:	60fb      	str	r3, [r7, #12]
  }

  /* Set the auto-reload preload */
  MODIFY_REG(tmpcr1, TIM_CR1_ARPE, Structure->AutoReloadPreload);
 8001994:	68fb      	ldr	r3, [r7, #12]
 8001996:	f023 0280 	bic.w	r2, r3, #128	@ 0x80
 800199a:	683b      	ldr	r3, [r7, #0]
 800199c:	695b      	ldr	r3, [r3, #20]
 800199e:	4313      	orrs	r3, r2
 80019a0:	60fb      	str	r3, [r7, #12]

  TIMx->CR1 = tmpcr1;
 80019a2:	687b      	ldr	r3, [r7, #4]
 80019a4:	68fa      	ldr	r2, [r7, #12]
 80019a6:	601a      	str	r2, [r3, #0]

  /* Set the Autoreload value */
  TIMx->ARR = (uint32_t)Structure->Period ;
 80019a8:	683b      	ldr	r3, [r7, #0]
 80019aa:	689a      	ldr	r2, [r3, #8]
 80019ac:	687b      	ldr	r3, [r7, #4]
 80019ae:	62da      	str	r2, [r3, #44]	@ 0x2c

  /* Set the Prescaler value */
  TIMx->PSC = Structure->Prescaler;
 80019b0:	683b      	ldr	r3, [r7, #0]
 80019b2:	681a      	ldr	r2, [r3, #0]
 80019b4:	687b      	ldr	r3, [r7, #4]
 80019b6:	629a      	str	r2, [r3, #40]	@ 0x28

  if (IS_TIM_REPETITION_COUNTER_INSTANCE(TIMx))
 80019b8:	687b      	ldr	r3, [r7, #4]
 80019ba:	4a0d      	ldr	r2, [pc, #52]	@ (80019f0 <TIM_Base_SetConfig+0xd0>)
 80019bc:	4293      	cmp	r3, r2
 80019be:	d103      	bne.n	80019c8 <TIM_Base_SetConfig+0xa8>
  {
    /* Set the Repetition Counter value */
    TIMx->RCR = Structure->RepetitionCounter;
 80019c0:	683b      	ldr	r3, [r7, #0]
 80019c2:	691a      	ldr	r2, [r3, #16]
 80019c4:	687b      	ldr	r3, [r7, #4]
 80019c6:	631a      	str	r2, [r3, #48]	@ 0x30
  }

  /* Generate an update event to reload the Prescaler
     and the repetition counter (only for advanced timer) value immediately */
  TIMx->EGR = TIM_EGR_UG;
 80019c8:	687b      	ldr	r3, [r7, #4]
 80019ca:	2201      	movs	r2, #1
 80019cc:	615a      	str	r2, [r3, #20]

  /* Check if the update flag is set after the Update Generation, if so clear the UIF flag */
  if (HAL_IS_BIT_SET(TIMx->SR, TIM_FLAG_UPDATE))
 80019ce:	687b      	ldr	r3, [r7, #4]
 80019d0:	691b      	ldr	r3, [r3, #16]
 80019d2:	f003 0301 	and.w	r3, r3, #1
 80019d6:	2b00      	cmp	r3, #0
 80019d8:	d005      	beq.n	80019e6 <TIM_Base_SetConfig+0xc6>
  {
    /* Clear the update flag */
    CLEAR_BIT(TIMx->SR, TIM_FLAG_UPDATE);
 80019da:	687b      	ldr	r3, [r7, #4]
 80019dc:	691b      	ldr	r3, [r3, #16]
 80019de:	f023 0201 	bic.w	r2, r3, #1
 80019e2:	687b      	ldr	r3, [r7, #4]
 80019e4:	611a      	str	r2, [r3, #16]
  }
}
 80019e6:	bf00      	nop
 80019e8:	3714      	adds	r7, #20
 80019ea:	46bd      	mov	sp, r7
 80019ec:	bc80      	pop	{r7}
 80019ee:	4770      	bx	lr
 80019f0:	40012c00 	.word	0x40012c00
 80019f4:	40000400 	.word	0x40000400
 80019f8:	40000800 	.word	0x40000800

080019fc <TIM_OC1_SetConfig>:
  * @param  TIMx to select the TIM peripheral
  * @param  OC_Config The output configuration structure
  * @retval None
  */
static void TIM_OC1_SetConfig(TIM_TypeDef *TIMx, const TIM_OC_InitTypeDef *OC_Config)
{
 80019fc:	b480      	push	{r7}
 80019fe:	b087      	sub	sp, #28
 8001a00:	af00      	add	r7, sp, #0
 8001a02:	6078      	str	r0, [r7, #4]
 8001a04:	6039      	str	r1, [r7, #0]
  uint32_t tmpccmrx;
  uint32_t tmpccer;
  uint32_t tmpcr2;

  /* Get the TIMx CCER register value */
  tmpccer = TIMx->CCER;
 8001a06:	687b      	ldr	r3, [r7, #4]
 8001a08:	6a1b      	ldr	r3, [r3, #32]
 8001a0a:	617b      	str	r3, [r7, #20]

  /* Disable the Channel 1: Reset the CC1E Bit */
  TIMx->CCER &= ~TIM_CCER_CC1E;
 8001a0c:	687b      	ldr	r3, [r7, #4]
 8001a0e:	6a1b      	ldr	r3, [r3, #32]
 8001a10:	f023 0201 	bic.w	r2, r3, #1
 8001a14:	687b      	ldr	r3, [r7, #4]
 8001a16:	621a      	str	r2, [r3, #32]

  /* Get the TIMx CR2 register value */
  tmpcr2 =  TIMx->CR2;
 8001a18:	687b      	ldr	r3, [r7, #4]
 8001a1a:	685b      	ldr	r3, [r3, #4]
 8001a1c:	613b      	str	r3, [r7, #16]

  /* Get the TIMx CCMR1 register value */
  tmpccmrx = TIMx->CCMR1;
 8001a1e:	687b      	ldr	r3, [r7, #4]
 8001a20:	699b      	ldr	r3, [r3, #24]
 8001a22:	60fb      	str	r3, [r7, #12]

  /* Reset the Output Compare Mode Bits */
  tmpccmrx &= ~TIM_CCMR1_OC1M;
 8001a24:	68fb      	ldr	r3, [r7, #12]
 8001a26:	f023 0370 	bic.w	r3, r3, #112	@ 0x70
 8001a2a:	60fb      	str	r3, [r7, #12]
  tmpccmrx &= ~TIM_CCMR1_CC1S;
 8001a2c:	68fb      	ldr	r3, [r7, #12]
 8001a2e:	f023 0303 	bic.w	r3, r3, #3
 8001a32:	60fb      	str	r3, [r7, #12]
  /* Select the Output Compare Mode */
  tmpccmrx |= OC_Config->OCMode;
 8001a34:	683b      	ldr	r3, [r7, #0]
 8001a36:	681b      	ldr	r3, [r3, #0]
 8001a38:	68fa      	ldr	r2, [r7, #12]
 8001a3a:	4313      	orrs	r3, r2
 8001a3c:	60fb      	str	r3, [r7, #12]

  /* Reset the Output Polarity level */
  tmpccer &= ~TIM_CCER_CC1P;
 8001a3e:	697b      	ldr	r3, [r7, #20]
 8001a40:	f023 0302 	bic.w	r3, r3, #2
 8001a44:	617b      	str	r3, [r7, #20]
  /* Set the Output Compare Polarity */
  tmpccer |= OC_Config->OCPolarity;
 8001a46:	683b      	ldr	r3, [r7, #0]
 8001a48:	689b      	ldr	r3, [r3, #8]
 8001a4a:	697a      	ldr	r2, [r7, #20]
 8001a4c:	4313      	orrs	r3, r2
 8001a4e:	617b      	str	r3, [r7, #20]

  if (IS_TIM_CCXN_INSTANCE(TIMx, TIM_CHANNEL_1))
 8001a50:	687b      	ldr	r3, [r7, #4]
 8001a52:	4a1c      	ldr	r2, [pc, #112]	@ (8001ac4 <TIM_OC1_SetConfig+0xc8>)
 8001a54:	4293      	cmp	r3, r2
 8001a56:	d10c      	bne.n	8001a72 <TIM_OC1_SetConfig+0x76>
  {
    /* Check parameters */
    assert_param(IS_TIM_OCN_POLARITY(OC_Config->OCNPolarity));

    /* Reset the Output N Polarity level */
    tmpccer &= ~TIM_CCER_CC1NP;
 8001a58:	697b      	ldr	r3, [r7, #20]
 8001a5a:	f023 0308 	bic.w	r3, r3, #8
 8001a5e:	617b      	str	r3, [r7, #20]
    /* Set the Output N Polarity */
    tmpccer |= OC_Config->OCNPolarity;
 8001a60:	683b      	ldr	r3, [r7, #0]
 8001a62:	68db      	ldr	r3, [r3, #12]
 8001a64:	697a      	ldr	r2, [r7, #20]
 8001a66:	4313      	orrs	r3, r2
 8001a68:	617b      	str	r3, [r7, #20]
    /* Reset the Output N State */
    tmpccer &= ~TIM_CCER_CC1NE;
 8001a6a:	697b      	ldr	r3, [r7, #20]
 8001a6c:	f023 0304 	bic.w	r3, r3, #4
 8001a70:	617b      	str	r3, [r7, #20]
  }

  if (IS_TIM_BREAK_INSTANCE(TIMx))
 8001a72:	687b      	ldr	r3, [r7, #4]
 8001a74:	4a13      	ldr	r2, [pc, #76]	@ (8001ac4 <TIM_OC1_SetConfig+0xc8>)
 8001a76:	4293      	cmp	r3, r2
 8001a78:	d111      	bne.n	8001a9e <TIM_OC1_SetConfig+0xa2>
    /* Check parameters */
    assert_param(IS_TIM_OCNIDLE_STATE(OC_Config->OCNIdleState));
    assert_param(IS_TIM_OCIDLE_STATE(OC_Config->OCIdleState));

    /* Reset the Output Compare and Output Compare N IDLE State */
    tmpcr2 &= ~TIM_CR2_OIS1;
 8001a7a:	693b      	ldr	r3, [r7, #16]
 8001a7c:	f423 7380 	bic.w	r3, r3, #256	@ 0x100
 8001a80:	613b      	str	r3, [r7, #16]
    tmpcr2 &= ~TIM_CR2_OIS1N;
 8001a82:	693b      	ldr	r3, [r7, #16]
 8001a84:	f423 7300 	bic.w	r3, r3, #512	@ 0x200
 8001a88:	613b      	str	r3, [r7, #16]
    /* Set the Output Idle state */
    tmpcr2 |= OC_Config->OCIdleState;
 8001a8a:	683b      	ldr	r3, [r7, #0]
 8001a8c:	695b      	ldr	r3, [r3, #20]
 8001a8e:	693a      	ldr	r2, [r7, #16]
 8001a90:	4313      	orrs	r3, r2
 8001a92:	613b      	str	r3, [r7, #16]
    /* Set the Output N Idle state */
    tmpcr2 |= OC_Config->OCNIdleState;
 8001a94:	683b      	ldr	r3, [r7, #0]
 8001a96:	699b      	ldr	r3, [r3, #24]
 8001a98:	693a      	ldr	r2, [r7, #16]
 8001a9a:	4313      	orrs	r3, r2
 8001a9c:	613b      	str	r3, [r7, #16]
  }

  /* Write to TIMx CR2 */
  TIMx->CR2 = tmpcr2;
 8001a9e:	687b      	ldr	r3, [r7, #4]
 8001aa0:	693a      	ldr	r2, [r7, #16]
 8001aa2:	605a      	str	r2, [r3, #4]

  /* Write to TIMx CCMR1 */
  TIMx->CCMR1 = tmpccmrx;
 8001aa4:	687b      	ldr	r3, [r7, #4]
 8001aa6:	68fa      	ldr	r2, [r7, #12]
 8001aa8:	619a      	str	r2, [r3, #24]

  /* Set the Capture Compare Register value */
  TIMx->CCR1 = OC_Config->Pulse;
 8001aaa:	683b      	ldr	r3, [r7, #0]
 8001aac:	685a      	ldr	r2, [r3, #4]
 8001aae:	687b      	ldr	r3, [r7, #4]
 8001ab0:	635a      	str	r2, [r3, #52]	@ 0x34

  /* Write to TIMx CCER */
  TIMx->CCER = tmpccer;
 8001ab2:	687b      	ldr	r3, [r7, #4]
 8001ab4:	697a      	ldr	r2, [r7, #20]
 8001ab6:	621a      	str	r2, [r3, #32]
}
 8001ab8:	bf00      	nop
 8001aba:	371c      	adds	r7, #28
 8001abc:	46bd      	mov	sp, r7
 8001abe:	bc80      	pop	{r7}
 8001ac0:	4770      	bx	lr
 8001ac2:	bf00      	nop
 8001ac4:	40012c00 	.word	0x40012c00

08001ac8 <TIM_OC2_SetConfig>:
  * @param  TIMx to select the TIM peripheral
  * @param  OC_Config The output configuration structure
  * @retval None
  */
void TIM_OC2_SetConfig(TIM_TypeDef *TIMx, const TIM_OC_InitTypeDef *OC_Config)
{
 8001ac8:	b480      	push	{r7}
 8001aca:	b087      	sub	sp, #28
 8001acc:	af00      	add	r7, sp, #0
 8001ace:	6078      	str	r0, [r7, #4]
 8001ad0:	6039      	str	r1, [r7, #0]
  uint32_t tmpccmrx;
  uint32_t tmpccer;
  uint32_t tmpcr2;

  /* Get the TIMx CCER register value */
  tmpccer = TIMx->CCER;
 8001ad2:	687b      	ldr	r3, [r7, #4]
 8001ad4:	6a1b      	ldr	r3, [r3, #32]
 8001ad6:	617b      	str	r3, [r7, #20]

  /* Disable the Channel 2: Reset the CC2E Bit */
  TIMx->CCER &= ~TIM_CCER_CC2E;
 8001ad8:	687b      	ldr	r3, [r7, #4]
 8001ada:	6a1b      	ldr	r3, [r3, #32]
 8001adc:	f023 0210 	bic.w	r2, r3, #16
 8001ae0:	687b      	ldr	r3, [r7, #4]
 8001ae2:	621a      	str	r2, [r3, #32]

  /* Get the TIMx CR2 register value */
  tmpcr2 =  TIMx->CR2;
 8001ae4:	687b      	ldr	r3, [r7, #4]
 8001ae6:	685b      	ldr	r3, [r3, #4]
 8001ae8:	613b      	str	r3, [r7, #16]

  /* Get the TIMx CCMR1 register value */
  tmpccmrx = TIMx->CCMR1;
 8001aea:	687b      	ldr	r3, [r7, #4]
 8001aec:	699b      	ldr	r3, [r3, #24]
 8001aee:	60fb      	str	r3, [r7, #12]

  /* Reset the Output Compare mode and Capture/Compare selection Bits */
  tmpccmrx &= ~TIM_CCMR1_OC2M;
 8001af0:	68fb      	ldr	r3, [r7, #12]
 8001af2:	f423 43e0 	bic.w	r3, r3, #28672	@ 0x7000
 8001af6:	60fb      	str	r3, [r7, #12]
  tmpccmrx &= ~TIM_CCMR1_CC2S;
 8001af8:	68fb      	ldr	r3, [r7, #12]
 8001afa:	f423 7340 	bic.w	r3, r3, #768	@ 0x300
 8001afe:	60fb      	str	r3, [r7, #12]

  /* Select the Output Compare Mode */
  tmpccmrx |= (OC_Config->OCMode << 8U);
 8001b00:	683b      	ldr	r3, [r7, #0]
 8001b02:	681b      	ldr	r3, [r3, #0]
 8001b04:	021b      	lsls	r3, r3, #8
 8001b06:	68fa      	ldr	r2, [r7, #12]
 8001b08:	4313      	orrs	r3, r2
 8001b0a:	60fb      	str	r3, [r7, #12]

  /* Reset the Output Polarity level */
  tmpccer &= ~TIM_CCER_CC2P;
 8001b0c:	697b      	ldr	r3, [r7, #20]
 8001b0e:	f023 0320 	bic.w	r3, r3, #32
 8001b12:	617b      	str	r3, [r7, #20]
  /* Set the Output Compare Polarity */
  tmpccer |= (OC_Config->OCPolarity << 4U);
 8001b14:	683b      	ldr	r3, [r7, #0]
 8001b16:	689b      	ldr	r3, [r3, #8]
 8001b18:	011b      	lsls	r3, r3, #4
 8001b1a:	697a      	ldr	r2, [r7, #20]
 8001b1c:	4313      	orrs	r3, r2
 8001b1e:	617b      	str	r3, [r7, #20]

  if (IS_TIM_CCXN_INSTANCE(TIMx, TIM_CHANNEL_2))
 8001b20:	687b      	ldr	r3, [r7, #4]
 8001b22:	4a1d      	ldr	r2, [pc, #116]	@ (8001b98 <TIM_OC2_SetConfig+0xd0>)
 8001b24:	4293      	cmp	r3, r2
 8001b26:	d10d      	bne.n	8001b44 <TIM_OC2_SetConfig+0x7c>
  {
    assert_param(IS_TIM_OCN_POLARITY(OC_Config->OCNPolarity));

    /* Reset the Output N Polarity level */
    tmpccer &= ~TIM_CCER_CC2NP;
 8001b28:	697b      	ldr	r3, [r7, #20]
 8001b2a:	f023 0380 	bic.w	r3, r3, #128	@ 0x80
 8001b2e:	617b      	str	r3, [r7, #20]
    /* Set the Output N Polarity */
    tmpccer |= (OC_Config->OCNPolarity << 4U);
 8001b30:	683b      	ldr	r3, [r7, #0]
 8001b32:	68db      	ldr	r3, [r3, #12]
 8001b34:	011b      	lsls	r3, r3, #4
 8001b36:	697a      	ldr	r2, [r7, #20]
 8001b38:	4313      	orrs	r3, r2
 8001b3a:	617b      	str	r3, [r7, #20]
    /* Reset the Output N State */
    tmpccer &= ~TIM_CCER_CC2NE;
 8001b3c:	697b      	ldr	r3, [r7, #20]
 8001b3e:	f023 0340 	bic.w	r3, r3, #64	@ 0x40
 8001b42:	617b      	str	r3, [r7, #20]
  }

  if (IS_TIM_BREAK_INSTANCE(TIMx))
 8001b44:	687b      	ldr	r3, [r7, #4]
 8001b46:	4a14      	ldr	r2, [pc, #80]	@ (8001b98 <TIM_OC2_SetConfig+0xd0>)
 8001b48:	4293      	cmp	r3, r2
 8001b4a:	d113      	bne.n	8001b74 <TIM_OC2_SetConfig+0xac>
    /* Check parameters */
    assert_param(IS_TIM_OCNIDLE_STATE(OC_Config->OCNIdleState));
    assert_param(IS_TIM_OCIDLE_STATE(OC_Config->OCIdleState));

    /* Reset the Output Compare and Output Compare N IDLE State */
    tmpcr2 &= ~TIM_CR2_OIS2;
 8001b4c:	693b      	ldr	r3, [r7, #16]
 8001b4e:	f423 6380 	bic.w	r3, r3, #1024	@ 0x400
 8001b52:	613b      	str	r3, [r7, #16]
    tmpcr2 &= ~TIM_CR2_OIS2N;
 8001b54:	693b      	ldr	r3, [r7, #16]
 8001b56:	f423 6300 	bic.w	r3, r3, #2048	@ 0x800
 8001b5a:	613b      	str	r3, [r7, #16]
    /* Set the Output Idle state */
    tmpcr2 |= (OC_Config->OCIdleState << 2U);
 8001b5c:	683b      	ldr	r3, [r7, #0]
 8001b5e:	695b      	ldr	r3, [r3, #20]
 8001b60:	009b      	lsls	r3, r3, #2
 8001b62:	693a      	ldr	r2, [r7, #16]
 8001b64:	4313      	orrs	r3, r2
 8001b66:	613b      	str	r3, [r7, #16]
    /* Set the Output N Idle state */
    tmpcr2 |= (OC_Config->OCNIdleState << 2U);
 8001b68:	683b      	ldr	r3, [r7, #0]
 8001b6a:	699b      	ldr	r3, [r3, #24]
 8001b6c:	009b      	lsls	r3, r3, #2
 8001b6e:	693a      	ldr	r2, [r7, #16]
 8001b70:	4313      	orrs	r3, r2
 8001b72:	613b      	str	r3, [r7, #16]
  }

  /* Write to TIMx CR2 */
  TIMx->CR2 = tmpcr2;
 8001b74:	687b      	ldr	r3, [r7, #4]
 8001b76:	693a      	ldr	r2, [r7, #16]
 8001b78:	605a      	str	r2, [r3, #4]

  /* Write to TIMx CCMR1 */
  TIMx->CCMR1 = tmpccmrx;
 8001b7a:	687b      	ldr	r3, [r7, #4]
 8001b7c:	68fa      	ldr	r2, [r7, #12]
 8001b7e:	619a      	str	r2, [r3, #24]

  /* Set the Capture Compare Register value */
  TIMx->CCR2 = OC_Config->Pulse;
 8001b80:	683b      	ldr	r3, [r7, #0]
 8001b82:	685a      	ldr	r2, [r3, #4]
 8001b84:	687b      	ldr	r3, [r7, #4]
 8001b86:	639a      	str	r2, [r3, #56]	@ 0x38

  /* Write to TIMx CCER */
  TIMx->CCER = tmpccer;
 8001b88:	687b      	ldr	r3, [r7, #4]
 8001b8a:	697a      	ldr	r2, [r7, #20]
 8001b8c:	621a      	str	r2, [r3, #32]
}
 8001b8e:	bf00      	nop
 8001b90:	371c      	adds	r7, #28
 8001b92:	46bd      	mov	sp, r7
 8001b94:	bc80      	pop	{r7}
 8001b96:	4770      	bx	lr
 8001b98:	40012c00 	.word	0x40012c00

08001b9c <TIM_OC3_SetConfig>:
  * @param  TIMx to select the TIM peripheral
  * @param  OC_Config The output configuration structure
  * @retval None
  */
static void TIM_OC3_SetConfig(TIM_TypeDef *TIMx, const TIM_OC_InitTypeDef *OC_Config)
{
 8001b9c:	b480      	push	{r7}
 8001b9e:	b087      	sub	sp, #28
 8001ba0:	af00      	add	r7, sp, #0
 8001ba2:	6078      	str	r0, [r7, #4]
 8001ba4:	6039      	str	r1, [r7, #0]
  uint32_t tmpccmrx;
  uint32_t tmpccer;
  uint32_t tmpcr2;

  /* Get the TIMx CCER register value */
  tmpccer = TIMx->CCER;
 8001ba6:	687b      	ldr	r3, [r7, #4]
 8001ba8:	6a1b      	ldr	r3, [r3, #32]
 8001baa:	617b      	str	r3, [r7, #20]

  /* Disable the Channel 3: Reset the CC2E Bit */
  TIMx->CCER &= ~TIM_CCER_CC3E;
 8001bac:	687b      	ldr	r3, [r7, #4]
 8001bae:	6a1b      	ldr	r3, [r3, #32]
 8001bb0:	f423 7280 	bic.w	r2, r3, #256	@ 0x100
 8001bb4:	687b      	ldr	r3, [r7, #4]
 8001bb6:	621a      	str	r2, [r3, #32]

  /* Get the TIMx CR2 register value */
  tmpcr2 =  TIMx->CR2;
 8001bb8:	687b      	ldr	r3, [r7, #4]
 8001bba:	685b      	ldr	r3, [r3, #4]
 8001bbc:	613b      	str	r3, [r7, #16]

  /* Get the TIMx CCMR2 register value */
  tmpccmrx = TIMx->CCMR2;
 8001bbe:	687b      	ldr	r3, [r7, #4]
 8001bc0:	69db      	ldr	r3, [r3, #28]
 8001bc2:	60fb      	str	r3, [r7, #12]

  /* Reset the Output Compare mode and Capture/Compare selection Bits */
  tmpccmrx &= ~TIM_CCMR2_OC3M;
 8001bc4:	68fb      	ldr	r3, [r7, #12]
 8001bc6:	f023 0370 	bic.w	r3, r3, #112	@ 0x70
 8001bca:	60fb      	str	r3, [r7, #12]
  tmpccmrx &= ~TIM_CCMR2_CC3S;
 8001bcc:	68fb      	ldr	r3, [r7, #12]
 8001bce:	f023 0303 	bic.w	r3, r3, #3
 8001bd2:	60fb      	str	r3, [r7, #12]
  /* Select the Output Compare Mode */
  tmpccmrx |= OC_Config->OCMode;
 8001bd4:	683b      	ldr	r3, [r7, #0]
 8001bd6:	681b      	ldr	r3, [r3, #0]
 8001bd8:	68fa      	ldr	r2, [r7, #12]
 8001bda:	4313      	orrs	r3, r2
 8001bdc:	60fb      	str	r3, [r7, #12]

  /* Reset the Output Polarity level */
  tmpccer &= ~TIM_CCER_CC3P;
 8001bde:	697b      	ldr	r3, [r7, #20]
 8001be0:	f423 7300 	bic.w	r3, r3, #512	@ 0x200
 8001be4:	617b      	str	r3, [r7, #20]
  /* Set the Output Compare Polarity */
  tmpccer |= (OC_Config->OCPolarity << 8U);
 8001be6:	683b      	ldr	r3, [r7, #0]
 8001be8:	689b      	ldr	r3, [r3, #8]
 8001bea:	021b      	lsls	r3, r3, #8
 8001bec:	697a      	ldr	r2, [r7, #20]
 8001bee:	4313      	orrs	r3, r2
 8001bf0:	617b      	str	r3, [r7, #20]

  if (IS_TIM_CCXN_INSTANCE(TIMx, TIM_CHANNEL_3))
 8001bf2:	687b      	ldr	r3, [r7, #4]
 8001bf4:	4a1d      	ldr	r2, [pc, #116]	@ (8001c6c <TIM_OC3_SetConfig+0xd0>)
 8001bf6:	4293      	cmp	r3, r2
 8001bf8:	d10d      	bne.n	8001c16 <TIM_OC3_SetConfig+0x7a>
  {
    assert_param(IS_TIM_OCN_POLARITY(OC_Config->OCNPolarity));

    /* Reset the Output N Polarity level */
    tmpccer &= ~TIM_CCER_CC3NP;
 8001bfa:	697b      	ldr	r3, [r7, #20]
 8001bfc:	f423 6300 	bic.w	r3, r3, #2048	@ 0x800
 8001c00:	617b      	str	r3, [r7, #20]
    /* Set the Output N Polarity */
    tmpccer |= (OC_Config->OCNPolarity << 8U);
 8001c02:	683b      	ldr	r3, [r7, #0]
 8001c04:	68db      	ldr	r3, [r3, #12]
 8001c06:	021b      	lsls	r3, r3, #8
 8001c08:	697a      	ldr	r2, [r7, #20]
 8001c0a:	4313      	orrs	r3, r2
 8001c0c:	617b      	str	r3, [r7, #20]
    /* Reset the Output N State */
    tmpccer &= ~TIM_CCER_CC3NE;
 8001c0e:	697b      	ldr	r3, [r7, #20]
 8001c10:	f423 6380 	bic.w	r3, r3, #1024	@ 0x400
 8001c14:	617b      	str	r3, [r7, #20]
  }

  if (IS_TIM_BREAK_INSTANCE(TIMx))
 8001c16:	687b      	ldr	r3, [r7, #4]
 8001c18:	4a14      	ldr	r2, [pc, #80]	@ (8001c6c <TIM_OC3_SetConfig+0xd0>)
 8001c1a:	4293      	cmp	r3, r2
 8001c1c:	d113      	bne.n	8001c46 <TIM_OC3_SetConfig+0xaa>
    /* Check parameters */
    assert_param(IS_TIM_OCNIDLE_STATE(OC_Config->OCNIdleState));
    assert_param(IS_TIM_OCIDLE_STATE(OC_Config->OCIdleState));

    /* Reset the Output Compare and Output Compare N IDLE State */
    tmpcr2 &= ~TIM_CR2_OIS3;
 8001c1e:	693b      	ldr	r3, [r7, #16]
 8001c20:	f423 5380 	bic.w	r3, r3, #4096	@ 0x1000
 8001c24:	613b      	str	r3, [r7, #16]
    tmpcr2 &= ~TIM_CR2_OIS3N;
 8001c26:	693b      	ldr	r3, [r7, #16]
 8001c28:	f423 5300 	bic.w	r3, r3, #8192	@ 0x2000
 8001c2c:	613b      	str	r3, [r7, #16]
    /* Set the Output Idle state */
    tmpcr2 |= (OC_Config->OCIdleState << 4U);
 8001c2e:	683b      	ldr	r3, [r7, #0]
 8001c30:	695b      	ldr	r3, [r3, #20]
 8001c32:	011b      	lsls	r3, r3, #4
 8001c34:	693a      	ldr	r2, [r7, #16]
 8001c36:	4313      	orrs	r3, r2
 8001c38:	613b      	str	r3, [r7, #16]
    /* Set the Output N Idle state */
    tmpcr2 |= (OC_Config->OCNIdleState << 4U);
 8001c3a:	683b      	ldr	r3, [r7, #0]
 8001c3c:	699b      	ldr	r3, [r3, #24]
 8001c3e:	011b      	lsls	r3, r3, #4
 8001c40:	693a      	ldr	r2, [r7, #16]
 8001c42:	4313      	orrs	r3, r2
 8001c44:	613b      	str	r3, [r7, #16]
  }

  /* Write to TIMx CR2 */
  TIMx->CR2 = tmpcr2;
 8001c46:	687b      	ldr	r3, [r7, #4]
 8001c48:	693a      	ldr	r2, [r7, #16]
 8001c4a:	605a      	str	r2, [r3, #4]

  /* Write to TIMx CCMR2 */
  TIMx->CCMR2 = tmpccmrx;
 8001c4c:	687b      	ldr	r3, [r7, #4]
 8001c4e:	68fa      	ldr	r2, [r7, #12]
 8001c50:	61da      	str	r2, [r3, #28]

  /* Set the Capture Compare Register value */
  TIMx->CCR3 = OC_Config->Pulse;
 8001c52:	683b      	ldr	r3, [r7, #0]
 8001c54:	685a      	ldr	r2, [r3, #4]
 8001c56:	687b      	ldr	r3, [r7, #4]
 8001c58:	63da      	str	r2, [r3, #60]	@ 0x3c

  /* Write to TIMx CCER */
  TIMx->CCER = tmpccer;
 8001c5a:	687b      	ldr	r3, [r7, #4]
 8001c5c:	697a      	ldr	r2, [r7, #20]
 8001c5e:	621a      	str	r2, [r3, #32]
}
 8001c60:	bf00      	nop
 8001c62:	371c      	adds	r7, #28
 8001c64:	46bd      	mov	sp, r7
 8001c66:	bc80      	pop	{r7}
 8001c68:	4770      	bx	lr
 8001c6a:	bf00      	nop
 8001c6c:	40012c00 	.word	0x40012c00

08001c70 <TIM_OC4_SetConfig>:
  * @param  TIMx to select the TIM peripheral
  * @param  OC_Config The output configuration structure
  * @retval None
  */
static void TIM_OC4_SetConfig(TIM_TypeDef *TIMx, const TIM_OC_InitTypeDef *OC_Config)
{
 8001c70:	b480      	push	{r7}
 8001c72:	b087      	sub	sp, #28
 8001c74:	af00      	add	r7, sp, #0
 8001c76:	6078      	str	r0, [r7, #4]
 8001c78:	6039      	str	r1, [r7, #0]
  uint32_t tmpccmrx;
  uint32_t tmpccer;
  uint32_t tmpcr2;

  /* Get the TIMx CCER register value */
  tmpccer = TIMx->CCER;
 8001c7a:	687b      	ldr	r3, [r7, #4]
 8001c7c:	6a1b      	ldr	r3, [r3, #32]
 8001c7e:	613b      	str	r3, [r7, #16]

  /* Disable the Channel 4: Reset the CC4E Bit */
  TIMx->CCER &= ~TIM_CCER_CC4E;
 8001c80:	687b      	ldr	r3, [r7, #4]
 8001c82:	6a1b      	ldr	r3, [r3, #32]
 8001c84:	f423 5280 	bic.w	r2, r3, #4096	@ 0x1000
 8001c88:	687b      	ldr	r3, [r7, #4]
 8001c8a:	621a      	str	r2, [r3, #32]

  /* Get the TIMx CR2 register value */
  tmpcr2 =  TIMx->CR2;
 8001c8c:	687b      	ldr	r3, [r7, #4]
 8001c8e:	685b      	ldr	r3, [r3, #4]
 8001c90:	617b      	str	r3, [r7, #20]

  /* Get the TIMx CCMR2 register value */
  tmpccmrx = TIMx->CCMR2;
 8001c92:	687b      	ldr	r3, [r7, #4]
 8001c94:	69db      	ldr	r3, [r3, #28]
 8001c96:	60fb      	str	r3, [r7, #12]

  /* Reset the Output Compare mode and Capture/Compare selection Bits */
  tmpccmrx &= ~TIM_CCMR2_OC4M;
 8001c98:	68fb      	ldr	r3, [r7, #12]
 8001c9a:	f423 43e0 	bic.w	r3, r3, #28672	@ 0x7000
 8001c9e:	60fb      	str	r3, [r7, #12]
  tmpccmrx &= ~TIM_CCMR2_CC4S;
 8001ca0:	68fb      	ldr	r3, [r7, #12]
 8001ca2:	f423 7340 	bic.w	r3, r3, #768	@ 0x300
 8001ca6:	60fb      	str	r3, [r7, #12]

  /* Select the Output Compare Mode */
  tmpccmrx |= (OC_Config->OCMode << 8U);
 8001ca8:	683b      	ldr	r3, [r7, #0]
 8001caa:	681b      	ldr	r3, [r3, #0]
 8001cac:	021b      	lsls	r3, r3, #8
 8001cae:	68fa      	ldr	r2, [r7, #12]
 8001cb0:	4313      	orrs	r3, r2
 8001cb2:	60fb      	str	r3, [r7, #12]

  /* Reset the Output Polarity level */
  tmpccer &= ~TIM_CCER_CC4P;
 8001cb4:	693b      	ldr	r3, [r7, #16]
 8001cb6:	f423 5300 	bic.w	r3, r3, #8192	@ 0x2000
 8001cba:	613b      	str	r3, [r7, #16]
  /* Set the Output Compare Polarity */
  tmpccer |= (OC_Config->OCPolarity << 12U);
 8001cbc:	683b      	ldr	r3, [r7, #0]
 8001cbe:	689b      	ldr	r3, [r3, #8]
 8001cc0:	031b      	lsls	r3, r3, #12
 8001cc2:	693a      	ldr	r2, [r7, #16]
 8001cc4:	4313      	orrs	r3, r2
 8001cc6:	613b      	str	r3, [r7, #16]

  if (IS_TIM_BREAK_INSTANCE(TIMx))
 8001cc8:	687b      	ldr	r3, [r7, #4]
 8001cca:	4a0f      	ldr	r2, [pc, #60]	@ (8001d08 <TIM_OC4_SetConfig+0x98>)
 8001ccc:	4293      	cmp	r3, r2
 8001cce:	d109      	bne.n	8001ce4 <TIM_OC4_SetConfig+0x74>
  {
    /* Check parameters */
    assert_param(IS_TIM_OCIDLE_STATE(OC_Config->OCIdleState));

    /* Reset the Output Compare IDLE State */
    tmpcr2 &= ~TIM_CR2_OIS4;
 8001cd0:	697b      	ldr	r3, [r7, #20]
 8001cd2:	f423 4380 	bic.w	r3, r3, #16384	@ 0x4000
 8001cd6:	617b      	str	r3, [r7, #20]

    /* Set the Output Idle state */
    tmpcr2 |= (OC_Config->OCIdleState << 6U);
 8001cd8:	683b      	ldr	r3, [r7, #0]
 8001cda:	695b      	ldr	r3, [r3, #20]
 8001cdc:	019b      	lsls	r3, r3, #6
 8001cde:	697a      	ldr	r2, [r7, #20]
 8001ce0:	4313      	orrs	r3, r2
 8001ce2:	617b      	str	r3, [r7, #20]
  }

  /* Write to TIMx CR2 */
  TIMx->CR2 = tmpcr2;
 8001ce4:	687b      	ldr	r3, [r7, #4]
 8001ce6:	697a      	ldr	r2, [r7, #20]
 8001ce8:	605a      	str	r2, [r3, #4]

  /* Write to TIMx CCMR2 */
  TIMx->CCMR2 = tmpccmrx;
 8001cea:	687b      	ldr	r3, [r7, #4]
 8001cec:	68fa      	ldr	r2, [r7, #12]
 8001cee:	61da      	str	r2, [r3, #28]

  /* Set the Capture Compare Register value */
  TIMx->CCR4 = OC_Config->Pulse;
 8001cf0:	683b      	ldr	r3, [r7, #0]
 8001cf2:	685a      	ldr	r2, [r3, #4]
 8001cf4:	687b      	ldr	r3, [r7, #4]
 8001cf6:	641a      	str	r2, [r3, #64]	@ 0x40

  /* Write to TIMx CCER */
  TIMx->CCER = tmpccer;
 8001cf8:	687b      	ldr	r3, [r7, #4]
 8001cfa:	693a      	ldr	r2, [r7, #16]
 8001cfc:	621a      	str	r2, [r3, #32]
}
 8001cfe:	bf00      	nop
 8001d00:	371c      	adds	r7, #28
 8001d02:	46bd      	mov	sp, r7
 8001d04:	bc80      	pop	{r7}
 8001d06:	4770      	bx	lr
 8001d08:	40012c00 	.word	0x40012c00

08001d0c <TIM_TI1_ConfigInputStage>:
  * @param  TIM_ICFilter Specifies the Input Capture Filter.
  *          This parameter must be a value between 0x00 and 0x0F.
  * @retval None
  */
static void TIM_TI1_ConfigInputStage(TIM_TypeDef *TIMx, uint32_t TIM_ICPolarity, uint32_t TIM_ICFilter)
{
 8001d0c:	b480      	push	{r7}
 8001d0e:	b087      	sub	sp, #28
 8001d10:	af00      	add	r7, sp, #0
 8001d12:	60f8      	str	r0, [r7, #12]
 8001d14:	60b9      	str	r1, [r7, #8]
 8001d16:	607a      	str	r2, [r7, #4]
  uint32_t tmpccmr1;
  uint32_t tmpccer;

  /* Disable the Channel 1: Reset the CC1E Bit */
  tmpccer = TIMx->CCER;
 8001d18:	68fb      	ldr	r3, [r7, #12]
 8001d1a:	6a1b      	ldr	r3, [r3, #32]
 8001d1c:	617b      	str	r3, [r7, #20]
  TIMx->CCER &= ~TIM_CCER_CC1E;
 8001d1e:	68fb      	ldr	r3, [r7, #12]
 8001d20:	6a1b      	ldr	r3, [r3, #32]
 8001d22:	f023 0201 	bic.w	r2, r3, #1
 8001d26:	68fb      	ldr	r3, [r7, #12]
 8001d28:	621a      	str	r2, [r3, #32]
  tmpccmr1 = TIMx->CCMR1;
 8001d2a:	68fb      	ldr	r3, [r7, #12]
 8001d2c:	699b      	ldr	r3, [r3, #24]
 8001d2e:	613b      	str	r3, [r7, #16]

  /* Set the filter */
  tmpccmr1 &= ~TIM_CCMR1_IC1F;
 8001d30:	693b      	ldr	r3, [r7, #16]
 8001d32:	f023 03f0 	bic.w	r3, r3, #240	@ 0xf0
 8001d36:	613b      	str	r3, [r7, #16]
  tmpccmr1 |= (TIM_ICFilter << 4U);
 8001d38:	687b      	ldr	r3, [r7, #4]
 8001d3a:	011b      	lsls	r3, r3, #4
 8001d3c:	693a      	ldr	r2, [r7, #16]
 8001d3e:	4313      	orrs	r3, r2
 8001d40:	613b      	str	r3, [r7, #16]

  /* Select the Polarity and set the CC1E Bit */
  tmpccer &= ~(TIM_CCER_CC1P | TIM_CCER_CC1NP);
 8001d42:	697b      	ldr	r3, [r7, #20]
 8001d44:	f023 030a 	bic.w	r3, r3, #10
 8001d48:	617b      	str	r3, [r7, #20]
  tmpccer |= TIM_ICPolarity;
 8001d4a:	697a      	ldr	r2, [r7, #20]
 8001d4c:	68bb      	ldr	r3, [r7, #8]
 8001d4e:	4313      	orrs	r3, r2
 8001d50:	617b      	str	r3, [r7, #20]

  /* Write to TIMx CCMR1 and CCER registers */
  TIMx->CCMR1 = tmpccmr1;
 8001d52:	68fb      	ldr	r3, [r7, #12]
 8001d54:	693a      	ldr	r2, [r7, #16]
 8001d56:	619a      	str	r2, [r3, #24]
  TIMx->CCER = tmpccer;
 8001d58:	68fb      	ldr	r3, [r7, #12]
 8001d5a:	697a      	ldr	r2, [r7, #20]
 8001d5c:	621a      	str	r2, [r3, #32]
}
 8001d5e:	bf00      	nop
 8001d60:	371c      	adds	r7, #28
 8001d62:	46bd      	mov	sp, r7
 8001d64:	bc80      	pop	{r7}
 8001d66:	4770      	bx	lr

08001d68 <TIM_TI2_ConfigInputStage>:
  * @param  TIM_ICFilter Specifies the Input Capture Filter.
  *          This parameter must be a value between 0x00 and 0x0F.
  * @retval None
  */
static void TIM_TI2_ConfigInputStage(TIM_TypeDef *TIMx, uint32_t TIM_ICPolarity, uint32_t TIM_ICFilter)
{
 8001d68:	b480      	push	{r7}
 8001d6a:	b087      	sub	sp, #28
 8001d6c:	af00      	add	r7, sp, #0
 8001d6e:	60f8      	str	r0, [r7, #12]
 8001d70:	60b9      	str	r1, [r7, #8]
 8001d72:	607a      	str	r2, [r7, #4]
  uint32_t tmpccmr1;
  uint32_t tmpccer;

  /* Disable the Channel 2: Reset the CC2E Bit */
  tmpccer = TIMx->CCER;
 8001d74:	68fb      	ldr	r3, [r7, #12]
 8001d76:	6a1b      	ldr	r3, [r3, #32]
 8001d78:	617b      	str	r3, [r7, #20]
  TIMx->CCER &= ~TIM_CCER_CC2E;
 8001d7a:	68fb      	ldr	r3, [r7, #12]
 8001d7c:	6a1b      	ldr	r3, [r3, #32]
 8001d7e:	f023 0210 	bic.w	r2, r3, #16
 8001d82:	68fb      	ldr	r3, [r7, #12]
 8001d84:	621a      	str	r2, [r3, #32]
  tmpccmr1 = TIMx->CCMR1;
 8001d86:	68fb      	ldr	r3, [r7, #12]
 8001d88:	699b      	ldr	r3, [r3, #24]
 8001d8a:	613b      	str	r3, [r7, #16]

  /* Set the filter */
  tmpccmr1 &= ~TIM_CCMR1_IC2F;
 8001d8c:	693b      	ldr	r3, [r7, #16]
 8001d8e:	f423 4370 	bic.w	r3, r3, #61440	@ 0xf000
 8001d92:	613b      	str	r3, [r7, #16]
  tmpccmr1 |= (TIM_ICFilter << 12U);
 8001d94:	687b      	ldr	r3, [r7, #4]
 8001d96:	031b      	lsls	r3, r3, #12
 8001d98:	693a      	ldr	r2, [r7, #16]
 8001d9a:	4313      	orrs	r3, r2
 8001d9c:	613b      	str	r3, [r7, #16]

  /* Select the Polarity and set the CC2E Bit */
  tmpccer &= ~(TIM_CCER_CC2P | TIM_CCER_CC2NP);
 8001d9e:	697b      	ldr	r3, [r7, #20]
 8001da0:	f023 03a0 	bic.w	r3, r3, #160	@ 0xa0
 8001da4:	617b      	str	r3, [r7, #20]
  tmpccer |= (TIM_ICPolarity << 4U);
 8001da6:	68bb      	ldr	r3, [r7, #8]
 8001da8:	011b      	lsls	r3, r3, #4
 8001daa:	697a      	ldr	r2, [r7, #20]
 8001dac:	4313      	orrs	r3, r2
 8001dae:	617b      	str	r3, [r7, #20]

  /* Write to TIMx CCMR1 and CCER registers */
  TIMx->CCMR1 = tmpccmr1 ;
 8001db0:	68fb      	ldr	r3, [r7, #12]
 8001db2:	693a      	ldr	r2, [r7, #16]
 8001db4:	619a      	str	r2, [r3, #24]
  TIMx->CCER = tmpccer;
 8001db6:	68fb      	ldr	r3, [r7, #12]
 8001db8:	697a      	ldr	r2, [r7, #20]
 8001dba:	621a      	str	r2, [r3, #32]
}
 8001dbc:	bf00      	nop
 8001dbe:	371c      	adds	r7, #28
 8001dc0:	46bd      	mov	sp, r7
 8001dc2:	bc80      	pop	{r7}
 8001dc4:	4770      	bx	lr

08001dc6 <TIM_ITRx_SetConfig>:
  *            @arg TIM_TS_TI2FP2: Filtered Timer Input 2
  *            @arg TIM_TS_ETRF: External Trigger input
  * @retval None
  */
static void TIM_ITRx_SetConfig(TIM_TypeDef *TIMx, uint32_t InputTriggerSource)
{
 8001dc6:	b480      	push	{r7}
 8001dc8:	b085      	sub	sp, #20
 8001dca:	af00      	add	r7, sp, #0
 8001dcc:	6078      	str	r0, [r7, #4]
 8001dce:	6039      	str	r1, [r7, #0]
  uint32_t tmpsmcr;

  /* Get the TIMx SMCR register value */
  tmpsmcr = TIMx->SMCR;
 8001dd0:	687b      	ldr	r3, [r7, #4]
 8001dd2:	689b      	ldr	r3, [r3, #8]
 8001dd4:	60fb      	str	r3, [r7, #12]
  /* Reset the TS Bits */
  tmpsmcr &= ~TIM_SMCR_TS;
 8001dd6:	68fb      	ldr	r3, [r7, #12]
 8001dd8:	f023 0370 	bic.w	r3, r3, #112	@ 0x70
 8001ddc:	60fb      	str	r3, [r7, #12]
  /* Set the Input Trigger source and the slave mode*/
  tmpsmcr |= (InputTriggerSource | TIM_SLAVEMODE_EXTERNAL1);
 8001dde:	683a      	ldr	r2, [r7, #0]
 8001de0:	68fb      	ldr	r3, [r7, #12]
 8001de2:	4313      	orrs	r3, r2
 8001de4:	f043 0307 	orr.w	r3, r3, #7
 8001de8:	60fb      	str	r3, [r7, #12]
  /* Write to TIMx SMCR */
  TIMx->SMCR = tmpsmcr;
 8001dea:	687b      	ldr	r3, [r7, #4]
 8001dec:	68fa      	ldr	r2, [r7, #12]
 8001dee:	609a      	str	r2, [r3, #8]
}
 8001df0:	bf00      	nop
 8001df2:	3714      	adds	r7, #20
 8001df4:	46bd      	mov	sp, r7
 8001df6:	bc80      	pop	{r7}
 8001df8:	4770      	bx	lr

08001dfa <TIM_ETR_SetConfig>:
  *          This parameter must be a value between 0x00 and 0x0F
  * @retval None
  */
void TIM_ETR_SetConfig(TIM_TypeDef *TIMx, uint32_t TIM_ExtTRGPrescaler,
                       uint32_t TIM_ExtTRGPolarity, uint32_t ExtTRGFilter)
{
 8001dfa:	b480      	push	{r7}
 8001dfc:	b087      	sub	sp, #28
 8001dfe:	af00      	add	r7, sp, #0
 8001e00:	60f8      	str	r0, [r7, #12]
 8001e02:	60b9      	str	r1, [r7, #8]
 8001e04:	607a      	str	r2, [r7, #4]
 8001e06:	603b      	str	r3, [r7, #0]
  uint32_t tmpsmcr;

  tmpsmcr = TIMx->SMCR;
 8001e08:	68fb      	ldr	r3, [r7, #12]
 8001e0a:	689b      	ldr	r3, [r3, #8]
 8001e0c:	617b      	str	r3, [r7, #20]

  /* Reset the ETR Bits */
  tmpsmcr &= ~(TIM_SMCR_ETF | TIM_SMCR_ETPS | TIM_SMCR_ECE | TIM_SMCR_ETP);
 8001e0e:	697b      	ldr	r3, [r7, #20]
 8001e10:	f423 437f 	bic.w	r3, r3, #65280	@ 0xff00
 8001e14:	617b      	str	r3, [r7, #20]

  /* Set the Prescaler, the Filter value and the Polarity */
  tmpsmcr |= (uint32_t)(TIM_ExtTRGPrescaler | (TIM_ExtTRGPolarity | (ExtTRGFilter << 8U)));
 8001e16:	683b      	ldr	r3, [r7, #0]
 8001e18:	021a      	lsls	r2, r3, #8
 8001e1a:	687b      	ldr	r3, [r7, #4]
 8001e1c:	431a      	orrs	r2, r3
 8001e1e:	68bb      	ldr	r3, [r7, #8]
 8001e20:	4313      	orrs	r3, r2
 8001e22:	697a      	ldr	r2, [r7, #20]
 8001e24:	4313      	orrs	r3, r2
 8001e26:	617b      	str	r3, [r7, #20]

  /* Write to TIMx SMCR */
  TIMx->SMCR = tmpsmcr;
 8001e28:	68fb      	ldr	r3, [r7, #12]
 8001e2a:	697a      	ldr	r2, [r7, #20]
 8001e2c:	609a      	str	r2, [r3, #8]
}
 8001e2e:	bf00      	nop
 8001e30:	371c      	adds	r7, #28
 8001e32:	46bd      	mov	sp, r7
 8001e34:	bc80      	pop	{r7}
 8001e36:	4770      	bx	lr

08001e38 <TIM_CCxChannelCmd>:
  * @param  ChannelState specifies the TIM Channel CCxE bit new state.
  *          This parameter can be: TIM_CCx_ENABLE or TIM_CCx_DISABLE.
  * @retval None
  */
void TIM_CCxChannelCmd(TIM_TypeDef *TIMx, uint32_t Channel, uint32_t ChannelState)
{
 8001e38:	b480      	push	{r7}
 8001e3a:	b087      	sub	sp, #28
 8001e3c:	af00      	add	r7, sp, #0
 8001e3e:	60f8      	str	r0, [r7, #12]
 8001e40:	60b9      	str	r1, [r7, #8]
 8001e42:	607a      	str	r2, [r7, #4]

  /* Check the parameters */
  assert_param(IS_TIM_CC1_INSTANCE(TIMx));
  assert_param(IS_TIM_CHANNELS(Channel));

  tmp = TIM_CCER_CC1E << (Channel & 0x1FU); /* 0x1FU = 31 bits max shift */
 8001e44:	68bb      	ldr	r3, [r7, #8]
 8001e46:	f003 031f 	and.w	r3, r3, #31
 8001e4a:	2201      	movs	r2, #1
 8001e4c:	fa02 f303 	lsl.w	r3, r2, r3
 8001e50:	617b      	str	r3, [r7, #20]

  /* Reset the CCxE Bit */
  TIMx->CCER &= ~tmp;
 8001e52:	68fb      	ldr	r3, [r7, #12]
 8001e54:	6a1a      	ldr	r2, [r3, #32]
 8001e56:	697b      	ldr	r3, [r7, #20]
 8001e58:	43db      	mvns	r3, r3
 8001e5a:	401a      	ands	r2, r3
 8001e5c:	68fb      	ldr	r3, [r7, #12]
 8001e5e:	621a      	str	r2, [r3, #32]

  /* Set or reset the CCxE Bit */
  TIMx->CCER |= (uint32_t)(ChannelState << (Channel & 0x1FU)); /* 0x1FU = 31 bits max shift */
 8001e60:	68fb      	ldr	r3, [r7, #12]
 8001e62:	6a1a      	ldr	r2, [r3, #32]
 8001e64:	68bb      	ldr	r3, [r7, #8]
 8001e66:	f003 031f 	and.w	r3, r3, #31
 8001e6a:	6879      	ldr	r1, [r7, #4]
 8001e6c:	fa01 f303 	lsl.w	r3, r1, r3
 8001e70:	431a      	orrs	r2, r3
 8001e72:	68fb      	ldr	r3, [r7, #12]
 8001e74:	621a      	str	r2, [r3, #32]
}
 8001e76:	bf00      	nop
 8001e78:	371c      	adds	r7, #28
 8001e7a:	46bd      	mov	sp, r7
 8001e7c:	bc80      	pop	{r7}
 8001e7e:	4770      	bx	lr

08001e80 <HAL_TIMEx_MasterConfigSynchronization>:
  *         mode.
  * @retval HAL status
  */
HAL_StatusTypeDef HAL_TIMEx_MasterConfigSynchronization(TIM_HandleTypeDef *htim,
                                                        const TIM_MasterConfigTypeDef *sMasterConfig)
{
 8001e80:	b480      	push	{r7}
 8001e82:	b085      	sub	sp, #20
 8001e84:	af00      	add	r7, sp, #0
 8001e86:	6078      	str	r0, [r7, #4]
 8001e88:	6039      	str	r1, [r7, #0]
  assert_param(IS_TIM_MASTER_INSTANCE(htim->Instance));
  assert_param(IS_TIM_TRGO_SOURCE(sMasterConfig->MasterOutputTrigger));
  assert_param(IS_TIM_MSM_STATE(sMasterConfig->MasterSlaveMode));

  /* Check input state */
  __HAL_LOCK(htim);
 8001e8a:	687b      	ldr	r3, [r7, #4]
 8001e8c:	f893 303c 	ldrb.w	r3, [r3, #60]	@ 0x3c
 8001e90:	2b01      	cmp	r3, #1
 8001e92:	d101      	bne.n	8001e98 <HAL_TIMEx_MasterConfigSynchronization+0x18>
 8001e94:	2302      	movs	r3, #2
 8001e96:	e046      	b.n	8001f26 <HAL_TIMEx_MasterConfigSynchronization+0xa6>
 8001e98:	687b      	ldr	r3, [r7, #4]
 8001e9a:	2201      	movs	r2, #1
 8001e9c:	f883 203c 	strb.w	r2, [r3, #60]	@ 0x3c

  /* Change the handler state */
  htim->State = HAL_TIM_STATE_BUSY;
 8001ea0:	687b      	ldr	r3, [r7, #4]
 8001ea2:	2202      	movs	r2, #2
 8001ea4:	f883 203d 	strb.w	r2, [r3, #61]	@ 0x3d

  /* Get the TIMx CR2 register value */
  tmpcr2 = htim->Instance->CR2;
 8001ea8:	687b      	ldr	r3, [r7, #4]
 8001eaa:	681b      	ldr	r3, [r3, #0]
 8001eac:	685b      	ldr	r3, [r3, #4]
 8001eae:	60fb      	str	r3, [r7, #12]

  /* Get the TIMx SMCR register value */
  tmpsmcr = htim->Instance->SMCR;
 8001eb0:	687b      	ldr	r3, [r7, #4]
 8001eb2:	681b      	ldr	r3, [r3, #0]
 8001eb4:	689b      	ldr	r3, [r3, #8]
 8001eb6:	60bb      	str	r3, [r7, #8]

  /* Reset the MMS Bits */
  tmpcr2 &= ~TIM_CR2_MMS;
 8001eb8:	68fb      	ldr	r3, [r7, #12]
 8001eba:	f023 0370 	bic.w	r3, r3, #112	@ 0x70
 8001ebe:	60fb      	str	r3, [r7, #12]
  /* Select the TRGO source */
  tmpcr2 |=  sMasterConfig->MasterOutputTrigger;
 8001ec0:	683b      	ldr	r3, [r7, #0]
 8001ec2:	681b      	ldr	r3, [r3, #0]
 8001ec4:	68fa      	ldr	r2, [r7, #12]
 8001ec6:	4313      	orrs	r3, r2
 8001ec8:	60fb      	str	r3, [r7, #12]

  /* Update TIMx CR2 */
  htim->Instance->CR2 = tmpcr2;
 8001eca:	687b      	ldr	r3, [r7, #4]
 8001ecc:	681b      	ldr	r3, [r3, #0]
 8001ece:	68fa      	ldr	r2, [r7, #12]
 8001ed0:	605a      	str	r2, [r3, #4]

  if (IS_TIM_SLAVE_INSTANCE(htim->Instance))
 8001ed2:	687b      	ldr	r3, [r7, #4]
 8001ed4:	681b      	ldr	r3, [r3, #0]
 8001ed6:	4a16      	ldr	r2, [pc, #88]	@ (8001f30 <HAL_TIMEx_MasterConfigSynchronization+0xb0>)
 8001ed8:	4293      	cmp	r3, r2
 8001eda:	d00e      	beq.n	8001efa <HAL_TIMEx_MasterConfigSynchronization+0x7a>
 8001edc:	687b      	ldr	r3, [r7, #4]
 8001ede:	681b      	ldr	r3, [r3, #0]
 8001ee0:	f1b3 4f80 	cmp.w	r3, #1073741824	@ 0x40000000
 8001ee4:	d009      	beq.n	8001efa <HAL_TIMEx_MasterConfigSynchronization+0x7a>
 8001ee6:	687b      	ldr	r3, [r7, #4]
 8001ee8:	681b      	ldr	r3, [r3, #0]
 8001eea:	4a12      	ldr	r2, [pc, #72]	@ (8001f34 <HAL_TIMEx_MasterConfigSynchronization+0xb4>)
 8001eec:	4293      	cmp	r3, r2
 8001eee:	d004      	beq.n	8001efa <HAL_TIMEx_MasterConfigSynchronization+0x7a>
 8001ef0:	687b      	ldr	r3, [r7, #4]
 8001ef2:	681b      	ldr	r3, [r3, #0]
 8001ef4:	4a10      	ldr	r2, [pc, #64]	@ (8001f38 <HAL_TIMEx_MasterConfigSynchronization+0xb8>)
 8001ef6:	4293      	cmp	r3, r2
 8001ef8:	d10c      	bne.n	8001f14 <HAL_TIMEx_MasterConfigSynchronization+0x94>
  {
    /* Reset the MSM Bit */
    tmpsmcr &= ~TIM_SMCR_MSM;
 8001efa:	68bb      	ldr	r3, [r7, #8]
 8001efc:	f023 0380 	bic.w	r3, r3, #128	@ 0x80
 8001f00:	60bb      	str	r3, [r7, #8]
    /* Set master mode */
    tmpsmcr |= sMasterConfig->MasterSlaveMode;
 8001f02:	683b      	ldr	r3, [r7, #0]
 8001f04:	685b      	ldr	r3, [r3, #4]
 8001f06:	68ba      	ldr	r2, [r7, #8]
 8001f08:	4313      	orrs	r3, r2
 8001f0a:	60bb      	str	r3, [r7, #8]

    /* Update TIMx SMCR */
    htim->Instance->SMCR = tmpsmcr;
 8001f0c:	687b      	ldr	r3, [r7, #4]
 8001f0e:	681b      	ldr	r3, [r3, #0]
 8001f10:	68ba      	ldr	r2, [r7, #8]
 8001f12:	609a      	str	r2, [r3, #8]
  }

  /* Change the htim state */
  htim->State = HAL_TIM_STATE_READY;
 8001f14:	687b      	ldr	r3, [r7, #4]
 8001f16:	2201      	movs	r2, #1
 8001f18:	f883 203d 	strb.w	r2, [r3, #61]	@ 0x3d

  __HAL_UNLOCK(htim);
 8001f1c:	687b      	ldr	r3, [r7, #4]
 8001f1e:	2200      	movs	r2, #0
 8001f20:	f883 203c 	strb.w	r2, [r3, #60]	@ 0x3c

  return HAL_OK;
 8001f24:	2300      	movs	r3, #0
}
 8001f26:	4618      	mov	r0, r3
 8001f28:	3714      	adds	r7, #20
 8001f2a:	46bd      	mov	sp, r7
 8001f2c:	bc80      	pop	{r7}
 8001f2e:	4770      	bx	lr
 8001f30:	40012c00 	.word	0x40012c00
 8001f34:	40000400 	.word	0x40000400
 8001f38:	40000800 	.word	0x40000800

08001f3c <memset>:
 8001f3c:	4603      	mov	r3, r0
 8001f3e:	4402      	add	r2, r0
 8001f40:	4293      	cmp	r3, r2
 8001f42:	d100      	bne.n	8001f46 <memset+0xa>
 8001f44:	4770      	bx	lr
 8001f46:	f803 1b01 	strb.w	r1, [r3], #1
 8001f4a:	e7f9      	b.n	8001f40 <memset+0x4>

08001f4c <__libc_init_array>:
 8001f4c:	b570      	push	{r4, r5, r6, lr}
 8001f4e:	2600      	movs	r6, #0
 8001f50:	4d0c      	ldr	r5, [pc, #48]	@ (8001f84 <__libc_init_array+0x38>)
 8001f52:	4c0d      	ldr	r4, [pc, #52]	@ (8001f88 <__libc_init_array+0x3c>)
 8001f54:	1b64      	subs	r4, r4, r5
 8001f56:	10a4      	asrs	r4, r4, #2
 8001f58:	42a6      	cmp	r6, r4
 8001f5a:	d109      	bne.n	8001f70 <__libc_init_array+0x24>
 8001f5c:	f000 f81a 	bl	8001f94 <_init>
 8001f60:	2600      	movs	r6, #0
 8001f62:	4d0a      	ldr	r5, [pc, #40]	@ (8001f8c <__libc_init_array+0x40>)
 8001f64:	4c0a      	ldr	r4, [pc, #40]	@ (8001f90 <__libc_init_array+0x44>)
 8001f66:	1b64      	subs	r4, r4, r5
 8001f68:	10a4      	asrs	r4, r4, #2
 8001f6a:	42a6      	cmp	r6, r4
 8001f6c:	d105      	bne.n	8001f7a <__libc_init_array+0x2e>
 8001f6e:	bd70      	pop	{r4, r5, r6, pc}
 8001f70:	f855 3b04 	ldr.w	r3, [r5], #4
 8001f74:	4798      	blx	r3
 8001f76:	3601      	adds	r6, #1
 8001f78:	e7ee      	b.n	8001f58 <__libc_init_array+0xc>
 8001f7a:	f855 3b04 	ldr.w	r3, [r5], #4
 8001f7e:	4798      	blx	r3
 8001f80:	3601      	adds	r6, #1
 8001f82:	e7f2      	b.n	8001f6a <__libc_init_array+0x1e>
 8001f84:	08001fd0 	.word	0x08001fd0
 8001f88:	08001fd0 	.word	0x08001fd0
 8001f8c:	08001fd0 	.word	0x08001fd0
 8001f90:	08001fd4 	.word	0x08001fd4

08001f94 <_init>:
 8001f94:	b5f8      	push	{r3, r4, r5, r6, r7, lr}
 8001f96:	bf00      	nop
 8001f98:	bcf8      	pop	{r3, r4, r5, r6, r7}
 8001f9a:	bc08      	pop	{r3}
 8001f9c:	469e      	mov	lr, r3
 8001f9e:	4770      	bx	lr

08001fa0 <_fini>:
 8001fa0:	b5f8      	push	{r3, r4, r5, r6, r7, lr}
 8001fa2:	bf00      	nop
 8001fa4:	bcf8      	pop	{r3, r4, r5, r6, r7}
 8001fa6:	bc08      	pop	{r3}
 8001fa8:	469e      	mov	lr, r3
 8001faa:	4770      	bx	lr
